
main.elf:     file format elf32-avr

Sections:
Idx Name          Size      VMA       LMA       File off  Algn
  0 .data         00000012  00800100  00002994  00002a28  2**0
                  CONTENTS, ALLOC, LOAD, DATA
  1 .text         00002994  00000000  00000000  00000094  2**1
                  CONTENTS, ALLOC, LOAD, READONLY, CODE
  2 .bss          00000109  00800112  00800112  00002a3a  2**0
                  ALLOC
  3 .debug_aranges 00000100  00000000  00000000  00002a3a  2**0
                  CONTENTS, READONLY, DEBUGGING
  4 .debug_pubnames 000016f5  00000000  00000000  00002b3a  2**0
                  CONTENTS, READONLY, DEBUGGING
  5 .debug_info   00003bbb  00000000  00000000  0000422f  2**0
                  CONTENTS, READONLY, DEBUGGING
  6 .debug_abbrev 00000bdb  00000000  00000000  00007dea  2**0
                  CONTENTS, READONLY, DEBUGGING
  7 .debug_line   00002608  00000000  00000000  000089c5  2**0
                  CONTENTS, READONLY, DEBUGGING
  8 .debug_frame  00000cb0  00000000  00000000  0000afd0  2**2
                  CONTENTS, READONLY, DEBUGGING
  9 .debug_str    00001871  00000000  00000000  0000bc80  2**0
                  CONTENTS, READONLY, DEBUGGING
 10 .debug_loc    00000feb  00000000  00000000  0000d4f1  2**0
                  CONTENTS, READONLY, DEBUGGING
 11 .debug_ranges 000000d8  00000000  00000000  0000e4dc  2**0
                  CONTENTS, READONLY, DEBUGGING

Disassembly of section .text:

00000000 <__vectors>:
       0:	0c 94 34 00 	jmp	0x68	; 0x68 <__ctors_end>
       4:	0c 94 51 00 	jmp	0xa2	; 0xa2 <__bad_interrupt>
       8:	0c 94 51 00 	jmp	0xa2	; 0xa2 <__bad_interrupt>
       c:	0c 94 51 00 	jmp	0xa2	; 0xa2 <__bad_interrupt>
      10:	0c 94 51 00 	jmp	0xa2	; 0xa2 <__bad_interrupt>
      14:	0c 94 51 00 	jmp	0xa2	; 0xa2 <__bad_interrupt>
      18:	0c 94 51 00 	jmp	0xa2	; 0xa2 <__bad_interrupt>
      1c:	0c 94 51 00 	jmp	0xa2	; 0xa2 <__bad_interrupt>
      20:	0c 94 51 00 	jmp	0xa2	; 0xa2 <__bad_interrupt>
      24:	0c 94 51 00 	jmp	0xa2	; 0xa2 <__bad_interrupt>
      28:	0c 94 51 00 	jmp	0xa2	; 0xa2 <__bad_interrupt>
      2c:	0c 94 51 00 	jmp	0xa2	; 0xa2 <__bad_interrupt>
      30:	0c 94 51 00 	jmp	0xa2	; 0xa2 <__bad_interrupt>
      34:	0c 94 51 00 	jmp	0xa2	; 0xa2 <__bad_interrupt>
      38:	0c 94 51 00 	jmp	0xa2	; 0xa2 <__bad_interrupt>
      3c:	0c 94 51 00 	jmp	0xa2	; 0xa2 <__bad_interrupt>
      40:	0c 94 98 0c 	jmp	0x1930	; 0x1930 <__vector_16>
      44:	0c 94 51 00 	jmp	0xa2	; 0xa2 <__bad_interrupt>
      48:	0c 94 dc 02 	jmp	0x5b8	; 0x5b8 <__vector_18>
      4c:	0c 94 51 00 	jmp	0xa2	; 0xa2 <__bad_interrupt>
      50:	0c 94 51 00 	jmp	0xa2	; 0xa2 <__bad_interrupt>
      54:	0c 94 51 00 	jmp	0xa2	; 0xa2 <__bad_interrupt>
      58:	0c 94 51 00 	jmp	0xa2	; 0xa2 <__bad_interrupt>
      5c:	0c 94 51 00 	jmp	0xa2	; 0xa2 <__bad_interrupt>
      60:	0c 94 51 00 	jmp	0xa2	; 0xa2 <__bad_interrupt>
      64:	0c 94 51 00 	jmp	0xa2	; 0xa2 <__bad_interrupt>

00000068 <__ctors_end>:
      68:	11 24       	eor	r1, r1
      6a:	1f be       	out	0x3f, r1	; 63
      6c:	cf ef       	ldi	r28, 0xFF	; 255
      6e:	d8 e0       	ldi	r29, 0x08	; 8
      70:	de bf       	out	0x3e, r29	; 62
      72:	cd bf       	out	0x3d, r28	; 61

00000074 <__do_copy_data>:
      74:	11 e0       	ldi	r17, 0x01	; 1
      76:	a0 e0       	ldi	r26, 0x00	; 0
      78:	b1 e0       	ldi	r27, 0x01	; 1
      7a:	e4 e9       	ldi	r30, 0x94	; 148
      7c:	f9 e2       	ldi	r31, 0x29	; 41
      7e:	02 c0       	rjmp	.+4      	; 0x84 <.do_copy_data_start>

00000080 <.do_copy_data_loop>:
      80:	05 90       	lpm	r0, Z+
      82:	0d 92       	st	X+, r0

00000084 <.do_copy_data_start>:
      84:	a2 31       	cpi	r26, 0x12	; 18
      86:	b1 07       	cpc	r27, r17
      88:	d9 f7       	brne	.-10     	; 0x80 <.do_copy_data_loop>

0000008a <__do_clear_bss>:
      8a:	12 e0       	ldi	r17, 0x02	; 2
      8c:	a2 e1       	ldi	r26, 0x12	; 18
      8e:	b1 e0       	ldi	r27, 0x01	; 1
      90:	01 c0       	rjmp	.+2      	; 0x94 <.do_clear_bss_start>

00000092 <.do_clear_bss_loop>:
      92:	1d 92       	st	X+, r1

00000094 <.do_clear_bss_start>:
      94:	ab 31       	cpi	r26, 0x1B	; 27
      96:	b1 07       	cpc	r27, r17
      98:	e1 f7       	brne	.-8      	; 0x92 <.do_clear_bss_loop>
      9a:	0e 94 53 00 	call	0xa6	; 0xa6 <main>
      9e:	0c 94 c8 14 	jmp	0x2990	; 0x2990 <_exit>

000000a2 <__bad_interrupt>:
      a2:	0c 94 00 00 	jmp	0	; 0x0 <__vectors>

000000a6 <main>:
#include "adc.h"
#include "pwm.h"
#include "lpf.h"
#include "pid.h"

int main(void){
      a6:	cf 92       	push	r12
      a8:	df 92       	push	r13
      aa:	ef 92       	push	r14
      ac:	ff 92       	push	r15
      ae:	0f 93       	push	r16
      b0:	1f 93       	push	r17
      b2:	cf 93       	push	r28
      b4:	df 93       	push	r29
  
  Timebase_Init(50);
      b6:	82 e3       	ldi	r24, 0x32	; 50
      b8:	90 e0       	ldi	r25, 0x00	; 0
      ba:	0e 94 4f 0c 	call	0x189e	; 0x189e <Timebase_Init>
  PWM_Init();
      be:	0e 94 1e 10 	call	0x203c	; 0x203c <PWM_Init>
  ADC_Init();
      c2:	0e 94 57 0f 	call	0x1eae	; 0x1eae <ADC_Init>
  PID_Init();
      c6:	0e 94 51 13 	call	0x26a2	; 0x26a2 <PID_Init>
  Debug_Init();
      ca:	0e 94 51 14 	call	0x28a2	; 0x28a2 <Debug_Init>
  Timebase_Timer_Await_SubSeconds(2);
      ce:	82 e0       	ldi	r24, 0x02	; 2
      d0:	90 e0       	ldi	r25, 0x00	; 0
      d2:	0e 94 eb 04 	call	0x9d6	; 0x9d6 <Timebase_Timer_Await_SubSeconds>
  Iron_Set_Max_PWM_Div_Fact(2);
      d6:	82 e0       	ldi	r24, 0x02	; 2
      d8:	90 e0       	ldi	r25, 0x00	; 0
      da:	0e 94 e0 0f 	call	0x1fc0	; 0x1fc0 <Iron_Set_Max_PWM_Div_Fact>
    milliseconds can be achieved.
 */
void
_delay_loop_2(uint16_t __count)
{
	__asm__ volatile (
      de:	f8 e9       	ldi	r31, 0x98	; 152
      e0:	cf 2e       	mov	r12, r31
      e2:	fa e3       	ldi	r31, 0x3A	; 58
      e4:	df 2e       	mov	r13, r31
  
  while(1){
    
	Timebase_Timer_Await_SubSeconds(5);
      e6:	c8 e2       	ldi	r28, 0x28	; 40
      e8:	d3 e2       	ldi	r29, 0x23	; 35
      ea:	85 e0       	ldi	r24, 0x05	; 5
      ec:	90 e0       	ldi	r25, 0x00	; 0
      ee:	0e 94 eb 04 	call	0x9d6	; 0x9d6 <Timebase_Timer_Await_SubSeconds>
    Iron_Heater_Off();
      f2:	0e 94 c5 0f 	call	0x1f8a	; 0x1f8a <Iron_Heater_Off>
      f6:	c6 01       	movw	r24, r12
      f8:	01 97       	sbiw	r24, 0x01	; 1
      fa:	f1 f7       	brne	.-4      	; 0xf8 <main+0x52>
	_delay_ms(5);
	ADC_Read_Temperature();
      fc:	0e 94 16 0f 	call	0x1e2c	; 0x1e2c <ADC_Read_Temperature>
	ADC_Set_Temperature_Factor(80);       //update tempfact
     100:	80 e5       	ldi	r24, 0x50	; 80
     102:	90 e0       	ldi	r25, 0x00	; 0
     104:	0e 94 5e 0e 	call	0x1cbc	; 0x1cbc <ADC_Set_Temperature_Factor>
	PID_Set_Constants(800, 20, 20);       //update const
     108:	60 e2       	ldi	r22, 0x20	; 32
     10a:	73 e0       	ldi	r23, 0x03	; 3
     10c:	80 e0       	ldi	r24, 0x00	; 0
     10e:	90 e0       	ldi	r25, 0x00	; 0
     110:	24 e1       	ldi	r18, 0x14	; 20
     112:	30 e0       	ldi	r19, 0x00	; 0
     114:	40 e0       	ldi	r20, 0x00	; 0
     116:	50 e0       	ldi	r21, 0x00	; 0
     118:	e4 e1       	ldi	r30, 0x14	; 20
     11a:	ee 2e       	mov	r14, r30
     11c:	f1 2c       	mov	r15, r1
     11e:	01 2d       	mov	r16, r1
     120:	11 2d       	mov	r17, r1
     122:	0e 94 a2 11 	call	0x2344	; 0x2344 <PID_Set_Constants>
	PID_Set_Max_IError(250);              //update ierror
     126:	6a ef       	ldi	r22, 0xFA	; 250
     128:	70 e0       	ldi	r23, 0x00	; 0
     12a:	80 e0       	ldi	r24, 0x00	; 0
     12c:	90 e0       	ldi	r25, 0x00	; 0
     12e:	0e 94 cd 11 	call	0x239a	; 0x239a <PID_Set_Max_IError>
	ADC_Set_Max_Power(36000);             //update power mW
     132:	60 ea       	ldi	r22, 0xA0	; 160
     134:	7c e8       	ldi	r23, 0x8C	; 140
     136:	80 e0       	ldi	r24, 0x00	; 0
     138:	90 e0       	ldi	r25, 0x00	; 0
     13a:	0e 94 55 0e 	call	0x1caa	; 0x1caa <ADC_Set_Max_Power>
	
	PID_Set_SetPoint(200);
     13e:	68 ec       	ldi	r22, 0xC8	; 200
     140:	70 e0       	ldi	r23, 0x00	; 0
     142:	80 e0       	ldi	r24, 0x00	; 0
     144:	90 e0       	ldi	r25, 0x00	; 0
     146:	0e 94 bb 11 	call	0x2376	; 0x2376 <PID_Set_SetPoint>
	PID_Set_ProcessValue(ADC_Get_Temperature());
     14a:	0e 94 65 0e 	call	0x1cca	; 0x1cca <ADC_Get_Temperature>
     14e:	a0 e0       	ldi	r26, 0x00	; 0
     150:	b0 e0       	ldi	r27, 0x00	; 0
     152:	bc 01       	movw	r22, r24
     154:	cd 01       	movw	r24, r26
     156:	0e 94 c4 11 	call	0x2388	; 0x2388 <PID_Set_ProcessValue>
	PID_Execute_Routine();
     15a:	0e 94 a7 12 	call	0x254e	; 0x254e <PID_Execute_Routine>
	Iron_Heater_Control();
     15e:	0e 94 39 10 	call	0x2072	; 0x2072 <Iron_Heater_Control>
     162:	ce 01       	movw	r24, r28
     164:	01 97       	sbiw	r24, 0x01	; 1
     166:	f1 f7       	brne	.-4      	; 0x164 <main+0xbe>
	
	_delay_ms(3);
	
	//Debug_Print_UpTime();
    Debug_Print_PID_SetPoint();
     168:	0e 94 1b 14 	call	0x2836	; 0x2836 <Debug_Print_PID_SetPoint>
    Debug_Print_Current_Temperature();
     16c:	0e 94 66 13 	call	0x26cc	; 0x26cc <Debug_Print_Current_Temperature>
	//Debug_Print_PID_DError_Product();
	
	//Debug_Print_Max_PWM();
	//Debug_Print_Vin();
	//Debug_Print_Current_Draw();
	Debug_Print_Power_Draw();
     170:	0e 94 80 13 	call	0x2700	; 0x2700 <Debug_Print_Power_Draw>
	//Debug_Print_Power_Bar_Value();
	
	//Debug_Print_Display_Temperature();
	UART_Transmit_New_Line();
     174:	0e 94 0f 02 	call	0x41e	; 0x41e <UART_Transmit_New_Line>
     178:	b8 cf       	rjmp	.-144    	; 0xea <main+0x44>

0000017a <UART_Struct_Init>:




void UART_Struct_Init(void){
  UART.Error=0;
     17a:	10 92 12 01 	sts	0x0112, r1
     17e:	e3 e1       	ldi	r30, 0x13	; 19
     180:	f1 e0       	ldi	r31, 0x01	; 1
  for(uint8_t i=0;i<8;i++){
    UART.Digits[i]=0;
     182:	11 92       	st	Z+, r1



void UART_Struct_Init(void){
  UART.Error=0;
  for(uint8_t i=0;i<8;i++){
     184:	81 e0       	ldi	r24, 0x01	; 1
     186:	eb 31       	cpi	r30, 0x1B	; 27
     188:	f8 07       	cpc	r31, r24
     18a:	d9 f7       	brne	.-10     	; 0x182 <UART_Struct_Init+0x8>
    UART.Digits[i]=0;
  }
  UART.InputNumberDigits=0;
     18c:	10 82       	st	Z, r1
    
  #ifdef UART_ENABLE_RX_INT
  UART.LastByteReceived=0;
     18e:	11 82       	std	Z+1, r1	; 0x01
  UART.BufferSize=UART_BUFFER_SIZE;
     190:	80 e2       	ldi	r24, 0x20	; 32
     192:	90 e0       	ldi	r25, 0x00	; 0
     194:	93 a3       	std	Z+35, r25	; 0x23
     196:	82 a3       	std	Z+34, r24	; 0x22
  UART.BufferIndex=0;
     198:	15 a2       	std	Z+37, r1	; 0x25
     19a:	14 a2       	std	Z+36, r1	; 0x24
     19c:	20 e0       	ldi	r18, 0x00	; 0
     19e:	04 c0       	rjmp	.+8      	; 0x1a8 <UART_Struct_Init+0x2e>
  for(uint8_t i=0;i<UART.BufferSize;i++){
    UART.Buffer[i]=0;
     1a0:	ee 5e       	subi	r30, 0xEE	; 238
     1a2:	fe 4f       	sbci	r31, 0xFE	; 254
     1a4:	13 86       	std	Z+11, r1	; 0x0b
    
  #ifdef UART_ENABLE_RX_INT
  UART.LastByteReceived=0;
  UART.BufferSize=UART_BUFFER_SIZE;
  UART.BufferIndex=0;
  for(uint8_t i=0;i<UART.BufferSize;i++){
     1a6:	2f 5f       	subi	r18, 0xFF	; 255
     1a8:	80 91 3d 01 	lds	r24, 0x013D
     1ac:	90 91 3e 01 	lds	r25, 0x013E
     1b0:	e2 2f       	mov	r30, r18
     1b2:	f0 e0       	ldi	r31, 0x00	; 0
     1b4:	e8 17       	cp	r30, r24
     1b6:	f9 07       	cpc	r31, r25
     1b8:	98 f3       	brcs	.-26     	; 0x1a0 <UART_Struct_Init+0x26>
    UART.Buffer[i]=0;
  }
  #endif
  
}
     1ba:	08 95       	ret

000001bc <UART_Config_GPIO>:


void UART_Config_GPIO(void){
	
}
     1bc:	08 95       	ret

000001be <UART_Config_Clock>:

void UART_Config_Clock(void){
  
}
     1be:	08 95       	ret

000001c0 <UART_Config_BAUD_Rate>:

void UART_Config_BAUD_Rate(uint32_t baud_rate){
     1c0:	9b 01       	movw	r18, r22
     1c2:	ac 01       	movw	r20, r24
  #ifdef UART_DOUBLE_SPEED
  uint32_t UBRR_VAL = ((F_CPU/8)/baud_rate)-1 ;
     1c4:	60 e6       	ldi	r22, 0x60	; 96
     1c6:	73 ee       	ldi	r23, 0xE3	; 227
     1c8:	86 e1       	ldi	r24, 0x16	; 22
     1ca:	90 e0       	ldi	r25, 0x00	; 0
     1cc:	0e 94 8b 14 	call	0x2916	; 0x2916 <__udivmodsi4>
     1d0:	21 50       	subi	r18, 0x01	; 1
     1d2:	30 40       	sbci	r19, 0x00	; 0
     1d4:	40 40       	sbci	r20, 0x00	; 0
     1d6:	50 40       	sbci	r21, 0x00	; 0
  UCSR0A|=(1<<U2X0);  
     1d8:	e0 ec       	ldi	r30, 0xC0	; 192
     1da:	f0 e0       	ldi	r31, 0x00	; 0
     1dc:	80 81       	ld	r24, Z
     1de:	82 60       	ori	r24, 0x02	; 2
     1e0:	80 83       	st	Z, r24
  #else
  UCSR0A&=~(1<<U2X0);  
  uint32_t UBRR_VAL = ((F_CPU/16)/baud_rate)-1 ;
  #endif
  UBRR0H = (UBRR_VAL >> 8) & 0xFF;
     1e2:	bb 27       	eor	r27, r27
     1e4:	a5 2f       	mov	r26, r21
     1e6:	94 2f       	mov	r25, r20
     1e8:	83 2f       	mov	r24, r19
     1ea:	80 93 c5 00 	sts	0x00C5, r24
  UBRR0L = UBRR_VAL & 0xFF ;
     1ee:	20 93 c4 00 	sts	0x00C4, r18
}
     1f2:	08 95       	ret

000001f4 <UART_Config_Transmitter>:


void UART_Config_Transmitter(void){
  UCSR0B|=(1<<TXEN0);
     1f4:	e1 ec       	ldi	r30, 0xC1	; 193
     1f6:	f0 e0       	ldi	r31, 0x00	; 0
     1f8:	80 81       	ld	r24, Z
     1fa:	88 60       	ori	r24, 0x08	; 8
     1fc:	80 83       	st	Z, r24
  UCSR0C=(1<<UCSZ00)| (1<<UCSZ01);
     1fe:	86 e0       	ldi	r24, 0x06	; 6
     200:	80 93 c2 00 	sts	0x00C2, r24
}
     204:	08 95       	ret

00000206 <UART_Config_Receiver>:


void UART_Config_Receiver(void){
  UCSR0B|=(1<<RXEN0);
     206:	e1 ec       	ldi	r30, 0xC1	; 193
     208:	f0 e0       	ldi	r31, 0x00	; 0
     20a:	80 81       	ld	r24, Z
     20c:	80 61       	ori	r24, 0x10	; 16
     20e:	80 83       	st	Z, r24
  UCSR0C=(1<<UCSZ00)| (1<<UCSZ01);
     210:	86 e0       	ldi	r24, 0x06	; 6
     212:	80 93 c2 00 	sts	0x00C2, r24
}
     216:	08 95       	ret

00000218 <UART_Config_Receiver_Interrupt>:

void UART_Config_Receiver_Interrupt(void){
  UCSR0B|=(1<<RXCIE0);
     218:	e1 ec       	ldi	r30, 0xC1	; 193
     21a:	f0 e0       	ldi	r31, 0x00	; 0
     21c:	80 81       	ld	r24, Z
     21e:	80 68       	ori	r24, 0x80	; 128
     220:	80 83       	st	Z, r24
  sei();
     222:	78 94       	sei
}
     224:	08 95       	ret

00000226 <UART_Transmit_Byte>:





void UART_Transmit_Byte(uint8_t val){
     226:	98 2f       	mov	r25, r24
  while(!(UCSR0A & (1<<UDRE0)));
     228:	80 91 c0 00 	lds	r24, 0x00C0
     22c:	85 ff       	sbrs	r24, 5
     22e:	fc cf       	rjmp	.-8      	; 0x228 <UART_Transmit_Byte+0x2>
  UDR0=val;
     230:	90 93 c6 00 	sts	0x00C6, r25
}
     234:	08 95       	ret

00000236 <UART_Receive_Byte>:

uint8_t UART_Receive_Byte(void){
     236:	df 93       	push	r29
     238:	cf 93       	push	r28
     23a:	0f 92       	push	r0
     23c:	cd b7       	in	r28, 0x3d	; 61
     23e:	de b7       	in	r29, 0x3e	; 62
  volatile uint8_t val=0;
     240:	19 82       	std	Y+1, r1	; 0x01
  if( UCSR0A & (1<<FE0) ){
     242:	80 91 c0 00 	lds	r24, 0x00C0
     246:	84 ff       	sbrs	r24, 4
     248:	05 c0       	rjmp	.+10     	; 0x254 <UART_Receive_Byte+0x1e>
    val=UDR0;
     24a:	80 91 c6 00 	lds	r24, 0x00C6
     24e:	89 83       	std	Y+1, r24	; 0x01
    UART.Error=0x01;
     250:	81 e0       	ldi	r24, 0x01	; 1
     252:	08 c0       	rjmp	.+16     	; 0x264 <UART_Receive_Byte+0x2e>
  }else if(UCSR0A & (1<<DOR0) ){
     254:	80 91 c0 00 	lds	r24, 0x00C0
     258:	83 ff       	sbrs	r24, 3
     25a:	07 c0       	rjmp	.+14     	; 0x26a <UART_Receive_Byte+0x34>
    val=UDR0;
     25c:	80 91 c6 00 	lds	r24, 0x00C6
     260:	89 83       	std	Y+1, r24	; 0x01
    UART.Error=0x02;
     262:	82 e0       	ldi	r24, 0x02	; 2
     264:	80 93 12 01 	sts	0x0112, r24
     268:	05 c0       	rjmp	.+10     	; 0x274 <UART_Receive_Byte+0x3e>
  }else{
    val=UDR0;
     26a:	80 91 c6 00 	lds	r24, 0x00C6
     26e:	89 83       	std	Y+1, r24	; 0x01
    UART.Error=0x00;
     270:	10 92 12 01 	sts	0x0112, r1
  }
  return val;
     274:	89 81       	ldd	r24, Y+1	; 0x01
}
     276:	0f 90       	pop	r0
     278:	cf 91       	pop	r28
     27a:	df 91       	pop	r29
     27c:	08 95       	ret

0000027e <UART_Last_Received_Byte>:

uint8_t UART_Last_Received_Byte(void){
  return UART.LastByteReceived;
     27e:	80 91 1c 01 	lds	r24, 0x011C
}
     282:	08 95       	ret

00000284 <UART_Reset_Last_Received_Byte>:

void UART_Reset_Last_Received_Byte(void){
  UART.LastByteReceived = 0;
     284:	10 92 1c 01 	sts	0x011C, r1
}
     288:	08 95       	ret

0000028a <UART_Transmit_Byte_Hex>:




void UART_Transmit_Byte_Hex(uint32_t val){
     28a:	1f 93       	push	r17
     28c:	cf 93       	push	r28
     28e:	df 93       	push	r29
     290:	ab 01       	movw	r20, r22
     292:	bc 01       	movw	r22, r24
  uint16_t hex_digit, index=0, loop_counter=0;
  if(val <= 0xFF){
     294:	4f 3f       	cpi	r20, 0xFF	; 255
     296:	51 05       	cpc	r21, r1
     298:	61 05       	cpc	r22, r1
     29a:	71 05       	cpc	r23, r1
     29c:	09 f0       	breq	.+2      	; 0x2a0 <UART_Transmit_Byte_Hex+0x16>
     29e:	28 f4       	brcc	.+10     	; 0x2aa <UART_Transmit_Byte_Hex+0x20>
     2a0:	e8 e0       	ldi	r30, 0x08	; 8
     2a2:	f0 e0       	ldi	r31, 0x00	; 0
     2a4:	c2 e0       	ldi	r28, 0x02	; 2
     2a6:	d0 e0       	ldi	r29, 0x00	; 0
     2a8:	11 c0       	rjmp	.+34     	; 0x2cc <UART_Transmit_Byte_Hex+0x42>
    index=8;
    loop_counter=2;
  }else if(val <= 0xFFFF){
     2aa:	40 30       	cpi	r20, 0x00	; 0
     2ac:	80 e0       	ldi	r24, 0x00	; 0
     2ae:	58 07       	cpc	r21, r24
     2b0:	81 e0       	ldi	r24, 0x01	; 1
     2b2:	68 07       	cpc	r22, r24
     2b4:	80 e0       	ldi	r24, 0x00	; 0
     2b6:	78 07       	cpc	r23, r24
     2b8:	28 f0       	brcs	.+10     	; 0x2c4 <UART_Transmit_Byte_Hex+0x3a>
     2ba:	e0 e2       	ldi	r30, 0x20	; 32
     2bc:	f0 e0       	ldi	r31, 0x00	; 0
     2be:	c8 e0       	ldi	r28, 0x08	; 8
     2c0:	d0 e0       	ldi	r29, 0x00	; 0
     2c2:	04 c0       	rjmp	.+8      	; 0x2cc <UART_Transmit_Byte_Hex+0x42>
     2c4:	e0 e1       	ldi	r30, 0x10	; 16
     2c6:	f0 e0       	ldi	r31, 0x00	; 0
     2c8:	c4 e0       	ldi	r28, 0x04	; 4
     2ca:	d0 e0       	ldi	r29, 0x00	; 0




void UART_Transmit_Byte(uint8_t val){
  while(!(UCSR0A & (1<<UDRE0)));
     2cc:	80 91 c0 00 	lds	r24, 0x00C0
     2d0:	85 ff       	sbrs	r24, 5
     2d2:	fc cf       	rjmp	.-8      	; 0x2cc <UART_Transmit_Byte_Hex+0x42>
  UDR0=val;
     2d4:	80 e3       	ldi	r24, 0x30	; 48
     2d6:	80 93 c6 00 	sts	0x00C6, r24




void UART_Transmit_Byte(uint8_t val){
  while(!(UCSR0A & (1<<UDRE0)));
     2da:	80 91 c0 00 	lds	r24, 0x00C0
     2de:	85 ff       	sbrs	r24, 5
     2e0:	fc cf       	rjmp	.-8      	; 0x2da <UART_Transmit_Byte_Hex+0x50>
  UDR0=val;
     2e2:	88 e7       	ldi	r24, 0x78	; 120
     2e4:	80 93 c6 00 	sts	0x00C6, r24
     2e8:	10 e0       	ldi	r17, 0x00	; 0
     2ea:	1f c0       	rjmp	.+62     	; 0x32a <UART_Transmit_Byte_Hex+0xa0>
    loop_counter=8;
  }
  UART_Transmit_Byte('0');
  UART_Transmit_Byte('x');
	for(uint8_t i=0;i<loop_counter;i++){
	  index-=4;
     2ec:	34 97       	sbiw	r30, 0x04	; 4
	  hex_digit=(uint8_t)((val>>index) & 0x0F);
     2ee:	db 01       	movw	r26, r22
     2f0:	ca 01       	movw	r24, r20
     2f2:	0e 2e       	mov	r0, r30
     2f4:	04 c0       	rjmp	.+8      	; 0x2fe <UART_Transmit_Byte_Hex+0x74>
     2f6:	b6 95       	lsr	r27
     2f8:	a7 95       	ror	r26
     2fa:	97 95       	ror	r25
     2fc:	87 95       	ror	r24
     2fe:	0a 94       	dec	r0
     300:	d2 f7       	brpl	.-12     	; 0x2f6 <UART_Transmit_Byte_Hex+0x6c>
     302:	90 e0       	ldi	r25, 0x00	; 0
     304:	8f 70       	andi	r24, 0x0F	; 15
     306:	90 70       	andi	r25, 0x00	; 0
	  if(hex_digit>9){
     308:	8a 30       	cpi	r24, 0x0A	; 10
     30a:	91 05       	cpc	r25, r1
     30c:	20 f0       	brcs	.+8      	; 0x316 <UART_Transmit_Byte_Hex+0x8c>
	    hex_digit+=55;
     30e:	9c 01       	movw	r18, r24
     310:	29 5c       	subi	r18, 0xC9	; 201
     312:	3f 4f       	sbci	r19, 0xFF	; 255
     314:	03 c0       	rjmp	.+6      	; 0x31c <UART_Transmit_Byte_Hex+0x92>
	  }else {
	    hex_digit+=48;
     316:	9c 01       	movw	r18, r24
     318:	20 5d       	subi	r18, 0xD0	; 208
     31a:	3f 4f       	sbci	r19, 0xFF	; 255




void UART_Transmit_Byte(uint8_t val){
  while(!(UCSR0A & (1<<UDRE0)));
     31c:	80 91 c0 00 	lds	r24, 0x00C0
     320:	85 ff       	sbrs	r24, 5
     322:	fc cf       	rjmp	.-8      	; 0x31c <UART_Transmit_Byte_Hex+0x92>
  UDR0=val;
     324:	20 93 c6 00 	sts	0x00C6, r18
    index=32;
    loop_counter=8;
  }
  UART_Transmit_Byte('0');
  UART_Transmit_Byte('x');
	for(uint8_t i=0;i<loop_counter;i++){
     328:	1f 5f       	subi	r17, 0xFF	; 255
     32a:	81 2f       	mov	r24, r17
     32c:	90 e0       	ldi	r25, 0x00	; 0
     32e:	8c 17       	cp	r24, r28
     330:	9d 07       	cpc	r25, r29
     332:	e0 f2       	brcs	.-72     	; 0x2ec <UART_Transmit_Byte_Hex+0x62>
	  }else {
	    hex_digit+=48;
	  }
	  UART_Transmit_Byte((uint8_t)hex_digit);
	}
}
     334:	df 91       	pop	r29
     336:	cf 91       	pop	r28
     338:	1f 91       	pop	r17
     33a:	08 95       	ret

0000033c <UART_Transmit_Byte_Bin>:


void UART_Transmit_Byte_Bin(uint32_t val){
     33c:	cf 92       	push	r12
     33e:	df 92       	push	r13
     340:	ef 92       	push	r14
     342:	ff 92       	push	r15
     344:	0f 93       	push	r16
     346:	1f 93       	push	r17
     348:	cf 93       	push	r28
     34a:	df 93       	push	r29
     34c:	ab 01       	movw	r20, r22
     34e:	bc 01       	movw	r22, r24
  uint8_t loop_counter=0;
  if(val <= 0xFF){
     350:	4f 3f       	cpi	r20, 0xFF	; 255
     352:	51 05       	cpc	r21, r1
     354:	61 05       	cpc	r22, r1
     356:	71 05       	cpc	r23, r1
     358:	09 f0       	breq	.+2      	; 0x35c <UART_Transmit_Byte_Bin+0x20>
     35a:	10 f4       	brcc	.+4      	; 0x360 <UART_Transmit_Byte_Bin+0x24>
     35c:	97 e0       	ldi	r25, 0x07	; 7
     35e:	0b c0       	rjmp	.+22     	; 0x376 <UART_Transmit_Byte_Bin+0x3a>
    loop_counter=7;
  }else if(val <= 0xFFFF){
     360:	40 30       	cpi	r20, 0x00	; 0
     362:	80 e0       	ldi	r24, 0x00	; 0
     364:	58 07       	cpc	r21, r24
     366:	81 e0       	ldi	r24, 0x01	; 1
     368:	68 07       	cpc	r22, r24
     36a:	80 e0       	ldi	r24, 0x00	; 0
     36c:	78 07       	cpc	r23, r24
     36e:	10 f0       	brcs	.+4      	; 0x374 <UART_Transmit_Byte_Bin+0x38>
     370:	9f e1       	ldi	r25, 0x1F	; 31
     372:	01 c0       	rjmp	.+2      	; 0x376 <UART_Transmit_Byte_Bin+0x3a>
     374:	9f e0       	ldi	r25, 0x0F	; 15




void UART_Transmit_Byte(uint8_t val){
  while(!(UCSR0A & (1<<UDRE0)));
     376:	80 91 c0 00 	lds	r24, 0x00C0
     37a:	85 ff       	sbrs	r24, 5
     37c:	fc cf       	rjmp	.-8      	; 0x376 <UART_Transmit_Byte_Bin+0x3a>
  UDR0=val;
     37e:	80 e3       	ldi	r24, 0x30	; 48
     380:	80 93 c6 00 	sts	0x00C6, r24




void UART_Transmit_Byte(uint8_t val){
  while(!(UCSR0A & (1<<UDRE0)));
     384:	80 91 c0 00 	lds	r24, 0x00C0
     388:	85 ff       	sbrs	r24, 5
     38a:	fc cf       	rjmp	.-8      	; 0x384 <UART_Transmit_Byte_Bin+0x48>
  UDR0=val;
     38c:	82 e6       	ldi	r24, 0x62	; 98
     38e:	80 93 c6 00 	sts	0x00C6, r24
     392:	20 e0       	ldi	r18, 0x00	; 0
     394:	30 e0       	ldi	r19, 0x00	; 0
	  UART_Transmit_Byte((uint8_t)hex_digit);
	}
}


void UART_Transmit_Byte_Bin(uint32_t val){
     396:	e9 2f       	mov	r30, r25
     398:	f0 e0       	ldi	r31, 0x00	; 0



void UART_Transmit_Byte(uint8_t val){
  while(!(UCSR0A & (1<<UDRE0)));
  UDR0=val;
     39a:	00 e3       	ldi	r16, 0x30	; 48
    loop_counter=31;
  }
  
  UART_Transmit_Byte('0');
  UART_Transmit_Byte('b');
  for(int i=loop_counter; i>=0; i--){
     39c:	11 e3       	ldi	r17, 0x31	; 49
     39e:	ef 01       	movw	r28, r30
     3a0:	21 96       	adiw	r28, 0x01	; 1
    if( (val>>i) & 1){
     3a2:	cf 01       	movw	r24, r30
     3a4:	82 1b       	sub	r24, r18
     3a6:	93 0b       	sbc	r25, r19
     3a8:	6a 01       	movw	r12, r20
     3aa:	7b 01       	movw	r14, r22
     3ac:	04 c0       	rjmp	.+8      	; 0x3b6 <UART_Transmit_Byte_Bin+0x7a>
     3ae:	f6 94       	lsr	r15
     3b0:	e7 94       	ror	r14
     3b2:	d7 94       	ror	r13
     3b4:	c7 94       	ror	r12
     3b6:	8a 95       	dec	r24
     3b8:	d2 f7       	brpl	.-12     	; 0x3ae <UART_Transmit_Byte_Bin+0x72>
     3ba:	d7 01       	movw	r26, r14
     3bc:	c6 01       	movw	r24, r12
     3be:	81 70       	andi	r24, 0x01	; 1
     3c0:	90 70       	andi	r25, 0x00	; 0
     3c2:	89 2b       	or	r24, r25
     3c4:	39 f0       	breq	.+14     	; 0x3d4 <UART_Transmit_Byte_Bin+0x98>




void UART_Transmit_Byte(uint8_t val){
  while(!(UCSR0A & (1<<UDRE0)));
     3c6:	80 91 c0 00 	lds	r24, 0x00C0
     3ca:	85 ff       	sbrs	r24, 5
     3cc:	fc cf       	rjmp	.-8      	; 0x3c6 <UART_Transmit_Byte_Bin+0x8a>
  UDR0=val;
     3ce:	10 93 c6 00 	sts	0x00C6, r17
     3d2:	06 c0       	rjmp	.+12     	; 0x3e0 <UART_Transmit_Byte_Bin+0xa4>




void UART_Transmit_Byte(uint8_t val){
  while(!(UCSR0A & (1<<UDRE0)));
     3d4:	80 91 c0 00 	lds	r24, 0x00C0
     3d8:	85 ff       	sbrs	r24, 5
     3da:	fc cf       	rjmp	.-8      	; 0x3d4 <UART_Transmit_Byte_Bin+0x98>
  UDR0=val;
     3dc:	00 93 c6 00 	sts	0x00C6, r16
     3e0:	2f 5f       	subi	r18, 0xFF	; 255
     3e2:	3f 4f       	sbci	r19, 0xFF	; 255
    loop_counter=31;
  }
  
  UART_Transmit_Byte('0');
  UART_Transmit_Byte('b');
  for(int i=loop_counter; i>=0; i--){
     3e4:	2c 17       	cp	r18, r28
     3e6:	3d 07       	cpc	r19, r29
     3e8:	e1 f6       	brne	.-72     	; 0x3a2 <UART_Transmit_Byte_Bin+0x66>
      UART_Transmit_Byte( 49 );   
    }else{
      UART_Transmit_Byte( 48 );         
    }
  }
}
     3ea:	df 91       	pop	r29
     3ec:	cf 91       	pop	r28
     3ee:	1f 91       	pop	r17
     3f0:	0f 91       	pop	r16
     3f2:	ff 90       	pop	r15
     3f4:	ef 90       	pop	r14
     3f6:	df 90       	pop	r13
     3f8:	cf 90       	pop	r12
     3fa:	08 95       	ret

000003fc <UART_Transmit_Text>:


void UART_Transmit_Text(char *str){
     3fc:	ac 01       	movw	r20, r24
     3fe:	20 e0       	ldi	r18, 0x00	; 0
     400:	07 c0       	rjmp	.+14     	; 0x410 <UART_Transmit_Text+0x14>




void UART_Transmit_Byte(uint8_t val){
  while(!(UCSR0A & (1<<UDRE0)));
     402:	80 91 c0 00 	lds	r24, 0x00C0
     406:	85 ff       	sbrs	r24, 5
     408:	fc cf       	rjmp	.-8      	; 0x402 <UART_Transmit_Text+0x6>
  UDR0=val;
     40a:	e0 93 c6 00 	sts	0x00C6, r30

void UART_Transmit_Text(char *str){
    uint8_t i=0;
    while(str[i]!='\0'){
        UART_Transmit_Byte(str[i]);
        i++;
     40e:	2f 5f       	subi	r18, 0xFF	; 255
}


void UART_Transmit_Text(char *str){
    uint8_t i=0;
    while(str[i]!='\0'){
     410:	fa 01       	movw	r30, r20
     412:	e2 0f       	add	r30, r18
     414:	f1 1d       	adc	r31, r1
     416:	e0 81       	ld	r30, Z
     418:	ee 23       	and	r30, r30
     41a:	99 f7       	brne	.-26     	; 0x402 <UART_Transmit_Text+0x6>
        UART_Transmit_Byte(str[i]);
        i++;
    }
}
     41c:	08 95       	ret

0000041e <UART_Transmit_New_Line>:

void UART_Transmit_New_Line(void){
    UART_Transmit_Text("\r\n");
     41e:	80 e0       	ldi	r24, 0x00	; 0
     420:	91 e0       	ldi	r25, 0x01	; 1
     422:	0e 94 fe 01 	call	0x3fc	; 0x3fc <UART_Transmit_Text>
}
     426:	08 95       	ret

00000428 <UART_Transmit_Space>:

void UART_Transmit_Space(void){
    UART_Transmit_Text(" ");
     428:	83 e0       	ldi	r24, 0x03	; 3
     42a:	91 e0       	ldi	r25, 0x01	; 1
     42c:	0e 94 fe 01 	call	0x3fc	; 0x3fc <UART_Transmit_Text>
}
     430:	08 95       	ret

00000432 <UART_Determine_Digit_Numbers>:

void UART_Determine_Digit_Numbers(uint32_t num){
     432:	bf 92       	push	r11
     434:	cf 92       	push	r12
     436:	df 92       	push	r13
     438:	ef 92       	push	r14
     43a:	ff 92       	push	r15
     43c:	0f 93       	push	r16
     43e:	1f 93       	push	r17
     440:	6b 01       	movw	r12, r22
     442:	7c 01       	movw	r14, r24
  uint8_t i=0;
  if(num==0){
     444:	61 15       	cp	r22, r1
     446:	71 05       	cpc	r23, r1
     448:	81 05       	cpc	r24, r1
     44a:	91 05       	cpc	r25, r1
     44c:	31 f4       	brne	.+12     	; 0x45a <UART_Determine_Digit_Numbers+0x28>
    UART.Digits[0]=0;
     44e:	10 92 13 01 	sts	0x0113, r1
    UART.InputNumberDigits=1;
     452:	81 e0       	ldi	r24, 0x01	; 1
     454:	80 93 1b 01 	sts	0x011B, r24
     458:	23 c0       	rjmp	.+70     	; 0x4a0 <UART_Determine_Digit_Numbers+0x6e>
     45a:	bb 24       	eor	r11, r11
  }else{
    while(num!=0){
      UART.Digits[i]=num%10;
     45c:	0b 2d       	mov	r16, r11
     45e:	10 e0       	ldi	r17, 0x00	; 0
     460:	0e 5e       	subi	r16, 0xEE	; 238
     462:	1e 4f       	sbci	r17, 0xFE	; 254
     464:	c7 01       	movw	r24, r14
     466:	b6 01       	movw	r22, r12
     468:	2a e0       	ldi	r18, 0x0A	; 10
     46a:	30 e0       	ldi	r19, 0x00	; 0
     46c:	40 e0       	ldi	r20, 0x00	; 0
     46e:	50 e0       	ldi	r21, 0x00	; 0
     470:	0e 94 8b 14 	call	0x2916	; 0x2916 <__udivmodsi4>
     474:	f8 01       	movw	r30, r16
     476:	61 83       	std	Z+1, r22	; 0x01
      num/=10;
     478:	c7 01       	movw	r24, r14
     47a:	b6 01       	movw	r22, r12
     47c:	2a e0       	ldi	r18, 0x0A	; 10
     47e:	30 e0       	ldi	r19, 0x00	; 0
     480:	40 e0       	ldi	r20, 0x00	; 0
     482:	50 e0       	ldi	r21, 0x00	; 0
     484:	0e 94 8b 14 	call	0x2916	; 0x2916 <__udivmodsi4>
     488:	c9 01       	movw	r24, r18
     48a:	da 01       	movw	r26, r20
     48c:	6c 01       	movw	r12, r24
     48e:	7d 01       	movw	r14, r26
      i++;
     490:	b3 94       	inc	r11
  uint8_t i=0;
  if(num==0){
    UART.Digits[0]=0;
    UART.InputNumberDigits=1;
  }else{
    while(num!=0){
     492:	c1 14       	cp	r12, r1
     494:	d1 04       	cpc	r13, r1
     496:	e1 04       	cpc	r14, r1
     498:	f1 04       	cpc	r15, r1
     49a:	01 f7       	brne	.-64     	; 0x45c <UART_Determine_Digit_Numbers+0x2a>
      UART.Digits[i]=num%10;
      num/=10;
      i++;
    }
	UART.InputNumberDigits=i;
     49c:	b0 92 1b 01 	sts	0x011B, r11
  }
}
     4a0:	1f 91       	pop	r17
     4a2:	0f 91       	pop	r16
     4a4:	ff 90       	pop	r15
     4a6:	ef 90       	pop	r14
     4a8:	df 90       	pop	r13
     4aa:	cf 90       	pop	r12
     4ac:	bf 90       	pop	r11
     4ae:	08 95       	ret

000004b0 <UART_Transmit_Number_Digits>:

void UART_Transmit_Number_Digits(void){
  for(uint8_t i=UART.InputNumberDigits; i>0; i--){
     4b0:	e0 91 1b 01 	lds	r30, 0x011B
     4b4:	0f c0       	rjmp	.+30     	; 0x4d4 <UART_Transmit_Number_Digits+0x24>
    uint8_t temp=i;
    temp-=1;
     4b6:	2e 2f       	mov	r18, r30
     4b8:	21 50       	subi	r18, 0x01	; 1
    temp=UART.Digits[temp];
     4ba:	e2 2f       	mov	r30, r18
     4bc:	f0 e0       	ldi	r31, 0x00	; 0
     4be:	ee 5e       	subi	r30, 0xEE	; 238
     4c0:	fe 4f       	sbci	r31, 0xFE	; 254
     4c2:	91 81       	ldd	r25, Z+1	; 0x01




void UART_Transmit_Byte(uint8_t val){
  while(!(UCSR0A & (1<<UDRE0)));
     4c4:	80 91 c0 00 	lds	r24, 0x00C0
     4c8:	85 ff       	sbrs	r24, 5
     4ca:	fc cf       	rjmp	.-8      	; 0x4c4 <UART_Transmit_Number_Digits+0x14>
void UART_Transmit_Number_Digits(void){
  for(uint8_t i=UART.InputNumberDigits; i>0; i--){
    uint8_t temp=i;
    temp-=1;
    temp=UART.Digits[temp];
    temp+=48;
     4cc:	90 5d       	subi	r25, 0xD0	; 208



void UART_Transmit_Byte(uint8_t val){
  while(!(UCSR0A & (1<<UDRE0)));
  UDR0=val;
     4ce:	90 93 c6 00 	sts	0x00C6, r25
     4d2:	e2 2f       	mov	r30, r18
	UART.InputNumberDigits=i;
  }
}

void UART_Transmit_Number_Digits(void){
  for(uint8_t i=UART.InputNumberDigits; i>0; i--){
     4d4:	ee 23       	and	r30, r30
     4d6:	79 f7       	brne	.-34     	; 0x4b6 <UART_Transmit_Number_Digits+0x6>
    temp-=1;
    temp=UART.Digits[temp];
    temp+=48;
    UART_Transmit_Byte(temp);
  }
}
     4d8:	08 95       	ret

000004da <UART_Transmit_Number>:

void UART_Transmit_Number(int32_t num){
     4da:	9b 01       	movw	r18, r22
     4dc:	ac 01       	movw	r20, r24
  if(num<0){UART_Transmit_Byte('-');num=-num;}
     4de:	97 ff       	sbrs	r25, 7
     4e0:	0e c0       	rjmp	.+28     	; 0x4fe <UART_Transmit_Number+0x24>




void UART_Transmit_Byte(uint8_t val){
  while(!(UCSR0A & (1<<UDRE0)));
     4e2:	80 91 c0 00 	lds	r24, 0x00C0
     4e6:	85 ff       	sbrs	r24, 5
     4e8:	fc cf       	rjmp	.-8      	; 0x4e2 <UART_Transmit_Number+0x8>
  UDR0=val;
     4ea:	8d e2       	ldi	r24, 0x2D	; 45
     4ec:	80 93 c6 00 	sts	0x00C6, r24
    UART_Transmit_Byte(temp);
  }
}

void UART_Transmit_Number(int32_t num){
  if(num<0){UART_Transmit_Byte('-');num=-num;}
     4f0:	50 95       	com	r21
     4f2:	40 95       	com	r20
     4f4:	30 95       	com	r19
     4f6:	21 95       	neg	r18
     4f8:	3f 4f       	sbci	r19, 0xFF	; 255
     4fa:	4f 4f       	sbci	r20, 0xFF	; 255
     4fc:	5f 4f       	sbci	r21, 0xFF	; 255
  UART_Determine_Digit_Numbers((uint32_t)num);
     4fe:	ca 01       	movw	r24, r20
     500:	b9 01       	movw	r22, r18
     502:	0e 94 19 02 	call	0x432	; 0x432 <UART_Determine_Digit_Numbers>
  UART_Transmit_Number_Digits();
     506:	0e 94 58 02 	call	0x4b0	; 0x4b0 <UART_Transmit_Number_Digits>
}
     50a:	08 95       	ret

0000050c <UART_Read_From_Buffer>:



uint8_t UART_Read_From_Buffer(uint16_t index){
  return UART.Buffer[index];
     50c:	fc 01       	movw	r30, r24
     50e:	ee 5e       	subi	r30, 0xEE	; 238
     510:	fe 4f       	sbci	r31, 0xFE	; 254
     512:	83 85       	ldd	r24, Z+11	; 0x0b
}
     514:	08 95       	ret

00000516 <UART_Current_Buffer_Index>:


uint16_t UART_Current_Buffer_Index(void){
  return UART.BufferIndex;
     516:	20 91 3f 01 	lds	r18, 0x013F
     51a:	30 91 40 01 	lds	r19, 0x0140
}
     51e:	c9 01       	movw	r24, r18
     520:	08 95       	ret

00000522 <UART_Flush_Buffer>:



void UART_Flush_Buffer(void){
  #ifdef UART_ENABLE_RX_INT
  UART.Error=0x00;
     522:	10 92 12 01 	sts	0x0112, r1
     526:	20 e0       	ldi	r18, 0x00	; 0
     528:	30 e0       	ldi	r19, 0x00	; 0
     52a:	06 c0       	rjmp	.+12     	; 0x538 <UART_Flush_Buffer+0x16>
  for(uint16_t i=0;i<UART.BufferSize;i++){
    UART.Buffer[i]=0x00;
     52c:	f9 01       	movw	r30, r18
     52e:	ee 5e       	subi	r30, 0xEE	; 238
     530:	fe 4f       	sbci	r31, 0xFE	; 254
     532:	13 86       	std	Z+11, r1	; 0x0b


void UART_Flush_Buffer(void){
  #ifdef UART_ENABLE_RX_INT
  UART.Error=0x00;
  for(uint16_t i=0;i<UART.BufferSize;i++){
     534:	2f 5f       	subi	r18, 0xFF	; 255
     536:	3f 4f       	sbci	r19, 0xFF	; 255
     538:	80 91 3d 01 	lds	r24, 0x013D
     53c:	90 91 3e 01 	lds	r25, 0x013E
     540:	28 17       	cp	r18, r24
     542:	39 07       	cpc	r19, r25
     544:	98 f3       	brcs	.-26     	; 0x52c <UART_Flush_Buffer+0xa>
    UART.Buffer[i]=0x00;
  }
  UART.BufferIndex=0;
     546:	10 92 40 01 	sts	0x0140, r1
     54a:	10 92 3f 01 	sts	0x013F, r1
  #endif
}
     54e:	08 95       	ret

00000550 <UART_Interrupt_Service_Routine>:



#ifdef UART_ENABLE_RX_INT
void UART_Interrupt_Service_Routine(void){
     550:	df 93       	push	r29
     552:	cf 93       	push	r28
     554:	0f 92       	push	r0
     556:	cd b7       	in	r28, 0x3d	; 61
     558:	de b7       	in	r29, 0x3e	; 62
  volatile uint8_t received_byte=0;
     55a:	19 82       	std	Y+1, r1	; 0x01
  received_byte=(uint8_t)UART_Receive_Byte();
     55c:	0e 94 1b 01 	call	0x236	; 0x236 <UART_Receive_Byte>
     560:	89 83       	std	Y+1, r24	; 0x01
  if(UART.Error==0x00){
     562:	80 91 12 01 	lds	r24, 0x0112
     566:	88 23       	and	r24, r24
     568:	19 f5       	brne	.+70     	; 0x5b0 <UART_Interrupt_Service_Routine+0x60>
    UART.LastByteReceived=received_byte;
     56a:	89 81       	ldd	r24, Y+1	; 0x01
     56c:	80 93 1c 01 	sts	0x011C, r24
    UART.Buffer[UART.BufferIndex]=received_byte;
     570:	e0 91 3f 01 	lds	r30, 0x013F
     574:	f0 91 40 01 	lds	r31, 0x0140
     578:	89 81       	ldd	r24, Y+1	; 0x01
     57a:	ee 5e       	subi	r30, 0xEE	; 238
     57c:	fe 4f       	sbci	r31, 0xFE	; 254
     57e:	83 87       	std	Z+11, r24	; 0x0b
    UART.BufferIndex++;
     580:	80 91 3f 01 	lds	r24, 0x013F
     584:	90 91 40 01 	lds	r25, 0x0140
     588:	01 96       	adiw	r24, 0x01	; 1
     58a:	90 93 40 01 	sts	0x0140, r25
     58e:	80 93 3f 01 	sts	0x013F, r24

    if(UART.BufferIndex>=UART.BufferSize){
     592:	20 91 3f 01 	lds	r18, 0x013F
     596:	30 91 40 01 	lds	r19, 0x0140
     59a:	80 91 3d 01 	lds	r24, 0x013D
     59e:	90 91 3e 01 	lds	r25, 0x013E
     5a2:	28 17       	cp	r18, r24
     5a4:	39 07       	cpc	r19, r25
     5a6:	20 f0       	brcs	.+8      	; 0x5b0 <UART_Interrupt_Service_Routine+0x60>
      UART.BufferIndex=0;
     5a8:	10 92 40 01 	sts	0x0140, r1
     5ac:	10 92 3f 01 	sts	0x013F, r1
    }
  }
}
     5b0:	0f 90       	pop	r0
     5b2:	cf 91       	pop	r28
     5b4:	df 91       	pop	r29
     5b6:	08 95       	ret

000005b8 <__vector_18>:
#endif


#ifdef UART_ENABLE_RX_INT
ISR(USART_RX_vect){
     5b8:	1f 92       	push	r1
     5ba:	0f 92       	push	r0
     5bc:	0f b6       	in	r0, 0x3f	; 63
     5be:	0f 92       	push	r0
     5c0:	11 24       	eor	r1, r1
     5c2:	2f 93       	push	r18
     5c4:	3f 93       	push	r19
     5c6:	4f 93       	push	r20
     5c8:	5f 93       	push	r21
     5ca:	6f 93       	push	r22
     5cc:	7f 93       	push	r23
     5ce:	8f 93       	push	r24
     5d0:	9f 93       	push	r25
     5d2:	af 93       	push	r26
     5d4:	bf 93       	push	r27
     5d6:	ef 93       	push	r30
     5d8:	ff 93       	push	r31
  UART_Interrupt_Service_Routine();
     5da:	0e 94 a8 02 	call	0x550	; 0x550 <UART_Interrupt_Service_Routine>
}
     5de:	ff 91       	pop	r31
     5e0:	ef 91       	pop	r30
     5e2:	bf 91       	pop	r27
     5e4:	af 91       	pop	r26
     5e6:	9f 91       	pop	r25
     5e8:	8f 91       	pop	r24
     5ea:	7f 91       	pop	r23
     5ec:	6f 91       	pop	r22
     5ee:	5f 91       	pop	r21
     5f0:	4f 91       	pop	r20
     5f2:	3f 91       	pop	r19
     5f4:	2f 91       	pop	r18
     5f6:	0f 90       	pop	r0
     5f8:	0f be       	out	0x3f, r0	; 63
     5fa:	0f 90       	pop	r0
     5fc:	1f 90       	pop	r1
     5fe:	18 95       	reti

00000600 <UART_Init>:
#endif



void UART_Init(uint32_t baud){
     600:	ef 92       	push	r14
     602:	ff 92       	push	r15
     604:	0f 93       	push	r16
     606:	1f 93       	push	r17
     608:	7b 01       	movw	r14, r22
     60a:	8c 01       	movw	r16, r24
  UART_Struct_Init();
     60c:	0e 94 bd 00 	call	0x17a	; 0x17a <UART_Struct_Init>
  UART_Config_GPIO();
  UART_Config_Clock();
  UART_Config_BAUD_Rate(baud);
     610:	c8 01       	movw	r24, r16
     612:	b7 01       	movw	r22, r14
     614:	0e 94 e0 00 	call	0x1c0	; 0x1c0 <UART_Config_BAUD_Rate>
  UBRR0L = UBRR_VAL & 0xFF ;
}


void UART_Config_Transmitter(void){
  UCSR0B|=(1<<TXEN0);
     618:	e1 ec       	ldi	r30, 0xC1	; 193
     61a:	f0 e0       	ldi	r31, 0x00	; 0
     61c:	80 81       	ld	r24, Z
     61e:	88 60       	ori	r24, 0x08	; 8
     620:	80 83       	st	Z, r24
  UCSR0C=(1<<UCSZ00)| (1<<UCSZ01);
     622:	a2 ec       	ldi	r26, 0xC2	; 194
     624:	b0 e0       	ldi	r27, 0x00	; 0
     626:	96 e0       	ldi	r25, 0x06	; 6
     628:	9c 93       	st	X, r25
}


void UART_Config_Receiver(void){
  UCSR0B|=(1<<RXEN0);
     62a:	80 81       	ld	r24, Z
     62c:	80 61       	ori	r24, 0x10	; 16
     62e:	80 83       	st	Z, r24
  UCSR0C=(1<<UCSZ00)| (1<<UCSZ01);
     630:	9c 93       	st	X, r25
}

void UART_Config_Receiver_Interrupt(void){
  UCSR0B|=(1<<RXCIE0);
     632:	80 81       	ld	r24, Z
     634:	80 68       	ori	r24, 0x80	; 128
     636:	80 83       	st	Z, r24
  sei();
     638:	78 94       	sei
  
  #ifdef UART_ENABLE_RX_INT
  UART_Config_Receiver_Interrupt();
  #endif
  
  UART_Flush_Buffer();
     63a:	0e 94 91 02 	call	0x522	; 0x522 <UART_Flush_Buffer>
}
     63e:	1f 91       	pop	r17
     640:	0f 91       	pop	r16
     642:	ff 90       	pop	r15
     644:	ef 90       	pop	r14
     646:	08 95       	ret

00000648 <Timebase_Struct_Init>:

timebase_t Timebase_type;
timebase_t *Timebase;

void Timebase_Struct_Init(void){
  Timebase=&Timebase_type;
     648:	83 e4       	ldi	r24, 0x43	; 67
     64a:	91 e0       	ldi	r25, 0x01	; 1
     64c:	90 93 42 01 	sts	0x0142, r25
     650:	80 93 41 01 	sts	0x0141, r24
  Timebase->Config.TimerType.Value = 0;
     654:	10 92 43 01 	sts	0x0143, r1
  Timebase->Config.TimerType.GeneralTimer = 1;
     658:	80 91 43 01 	lds	r24, 0x0143
     65c:	84 60       	ori	r24, 0x04	; 4
     65e:	80 93 43 01 	sts	0x0143, r24
  Timebase->Config.TimerType.TimerIndex = 0;
     662:	80 91 43 01 	lds	r24, 0x0143
     666:	87 70       	andi	r24, 0x07	; 7
     668:	80 93 43 01 	sts	0x0143, r24
  Timebase->Config.UpdateRate = 1;
     66c:	81 e0       	ldi	r24, 0x01	; 1
     66e:	90 e0       	ldi	r25, 0x00	; 0
     670:	90 93 45 01 	sts	0x0145, r25
     674:	80 93 44 01 	sts	0x0144, r24
  Timebase->Time.OVFUpdateValue=0;
     678:	10 92 46 01 	sts	0x0146, r1
  Timebase->Time.SubSeconds = 0;
     67c:	10 92 4b 01 	sts	0x014B, r1
     680:	10 92 4c 01 	sts	0x014C, r1
     684:	10 92 4d 01 	sts	0x014D, r1
     688:	10 92 4e 01 	sts	0x014E, r1
  Timebase->Time.Seconds = 0;
     68c:	10 92 4f 01 	sts	0x014F, r1
     690:	10 92 50 01 	sts	0x0150, r1
     694:	10 92 51 01 	sts	0x0151, r1
     698:	10 92 52 01 	sts	0x0152, r1
  Timebase->Time.LastSample = 0;
     69c:	10 92 47 01 	sts	0x0147, r1
     6a0:	10 92 48 01 	sts	0x0148, r1
     6a4:	10 92 49 01 	sts	0x0149, r1
     6a8:	10 92 4a 01 	sts	0x014A, r1
  
  #ifdef TIMEBASE_TIME_WINDOW_CALCULATION
    Timebase->Time.StartTimeSeconds=0;
     6ac:	10 92 53 01 	sts	0x0153, r1
     6b0:	10 92 54 01 	sts	0x0154, r1
     6b4:	10 92 55 01 	sts	0x0155, r1
     6b8:	10 92 56 01 	sts	0x0156, r1
	Timebase->Time.StartTimeSubSeconds=0;
     6bc:	10 92 57 01 	sts	0x0157, r1
     6c0:	10 92 58 01 	sts	0x0158, r1
     6c4:	10 92 59 01 	sts	0x0159, r1
     6c8:	10 92 5a 01 	sts	0x015A, r1
	Timebase->Time.Status=0;
     6cc:	10 92 5b 01 	sts	0x015B, r1
  #endif
  
  #ifdef TIMEBASE_TOKEN_FUNCTIONS
  Timebase->ActiveTokens = 0;
     6d0:	10 92 5c 01 	sts	0x015C, r1
  #endif

  #ifdef TIMEBASE_UPCOUNTER
  for(uint8_t i=0; i < TIMEBASE_UPCOUNTER; i++){
    Timebase->UpCounter[i].Status.StatusByte = 0;  
     6d4:	10 92 5d 01 	sts	0x015D, r1
    Timebase->UpCounter[i].EndValue = 0;
     6d8:	10 92 5e 01 	sts	0x015E, r1
     6dc:	10 92 5f 01 	sts	0x015F, r1
     6e0:	10 92 60 01 	sts	0x0160, r1
     6e4:	10 92 61 01 	sts	0x0161, r1
    Timebase->UpCounter[i].Target = 0;
     6e8:	10 92 62 01 	sts	0x0162, r1
     6ec:	10 92 63 01 	sts	0x0163, r1
     6f0:	10 92 64 01 	sts	0x0164, r1
     6f4:	10 92 65 01 	sts	0x0165, r1
    Timebase->UpCounter[i].Temporary = 0;    
     6f8:	10 92 66 01 	sts	0x0166, r1
     6fc:	10 92 67 01 	sts	0x0167, r1
     700:	10 92 68 01 	sts	0x0168, r1
     704:	10 92 69 01 	sts	0x0169, r1
    Timebase->UpCounter[i].Value = 0;
     708:	10 92 6a 01 	sts	0x016A, r1
     70c:	10 92 6b 01 	sts	0x016B, r1
     710:	10 92 6c 01 	sts	0x016C, r1
     714:	10 92 6d 01 	sts	0x016D, r1
    Timebase->UpCounter[i].PeriodValue = 0;
     718:	10 92 6e 01 	sts	0x016E, r1
     71c:	10 92 6f 01 	sts	0x016F, r1
     720:	10 92 70 01 	sts	0x0170, r1
     724:	10 92 71 01 	sts	0x0171, r1
  }
  #endif

  #ifdef TIMEBASE_DOWNCOUNTER
  for(uint8_t i=0; i < TIMEBASE_DOWNCOUNTER; i++){
    Timebase->DownCounter[i].Status.StatusByte = 0; 
     728:	10 92 72 01 	sts	0x0172, r1
    Timebase->DownCounter[i].EndValue = 0;
     72c:	10 92 73 01 	sts	0x0173, r1
     730:	10 92 74 01 	sts	0x0174, r1
     734:	10 92 75 01 	sts	0x0175, r1
     738:	10 92 76 01 	sts	0x0176, r1
    Timebase->DownCounter[i].Value = 0;
     73c:	10 92 77 01 	sts	0x0177, r1
     740:	10 92 78 01 	sts	0x0178, r1
     744:	10 92 79 01 	sts	0x0179, r1
     748:	10 92 7a 01 	sts	0x017A, r1
    Timebase->DownCounter[i].PeriodValue = 0;
     74c:	10 92 7b 01 	sts	0x017B, r1
     750:	10 92 7c 01 	sts	0x017C, r1
     754:	10 92 7d 01 	sts	0x017D, r1
     758:	10 92 7e 01 	sts	0x017E, r1
  }
  #endif
}
     75c:	08 95       	ret

0000075e <Timebase_Timer_Config>:


void Timebase_Timer_Config(uint16_t UpdateRateHz){
     75e:	7f 92       	push	r7
     760:	8f 92       	push	r8
     762:	9f 92       	push	r9
     764:	af 92       	push	r10
     766:	bf 92       	push	r11
     768:	cf 92       	push	r12
     76a:	df 92       	push	r13
     76c:	ef 92       	push	r14
     76e:	ff 92       	push	r15
     770:	0f 93       	push	r16
     772:	1f 93       	push	r17
     774:	df 93       	push	r29
     776:	cf 93       	push	r28
     778:	cd b7       	in	r28, 0x3d	; 61
     77a:	de b7       	in	r29, 0x3e	; 62
     77c:	2a 97       	sbiw	r28, 0x0a	; 10
     77e:	0f b6       	in	r0, 0x3f	; 63
     780:	f8 94       	cli
     782:	de bf       	out	0x3e, r29	; 62
     784:	0f be       	out	0x3f, r0	; 63
     786:	cd bf       	out	0x3d, r28	; 61
     788:	8c 01       	movw	r16, r24
  if(Timebase->Config.TimerType.WatchDogTimer == 1){
     78a:	c0 90 41 01 	lds	r12, 0x0141
     78e:	d0 90 42 01 	lds	r13, 0x0142
     792:	f6 01       	movw	r30, r12
     794:	80 81       	ld	r24, Z
     796:	80 ff       	sbrs	r24, 0
     798:	31 c0       	rjmp	.+98     	; 0x7fc <Timebase_Timer_Config+0x9e>
    uint8_t Prescaler_val=0;
    if(UpdateRateHz==1){
     79a:	01 30       	cpi	r16, 0x01	; 1
     79c:	11 05       	cpc	r17, r1
     79e:	11 f4       	brne	.+4      	; 0x7a4 <Timebase_Timer_Config+0x46>
     7a0:	96 e0       	ldi	r25, 0x06	; 6
     7a2:	19 c0       	rjmp	.+50     	; 0x7d6 <Timebase_Timer_Config+0x78>
      Prescaler_val=0x06;
    }else if(UpdateRateHz==2){
     7a4:	02 30       	cpi	r16, 0x02	; 2
     7a6:	11 05       	cpc	r17, r1
     7a8:	11 f4       	brne	.+4      	; 0x7ae <Timebase_Timer_Config+0x50>
     7aa:	95 e0       	ldi	r25, 0x05	; 5
     7ac:	14 c0       	rjmp	.+40     	; 0x7d6 <Timebase_Timer_Config+0x78>
      Prescaler_val=0x05;
    }else if(UpdateRateHz==4){
     7ae:	04 30       	cpi	r16, 0x04	; 4
     7b0:	11 05       	cpc	r17, r1
     7b2:	11 f4       	brne	.+4      	; 0x7b8 <Timebase_Timer_Config+0x5a>
     7b4:	94 e0       	ldi	r25, 0x04	; 4
     7b6:	0f c0       	rjmp	.+30     	; 0x7d6 <Timebase_Timer_Config+0x78>
      Prescaler_val=0x04;
    }else if(UpdateRateHz==8){
     7b8:	08 30       	cpi	r16, 0x08	; 8
     7ba:	11 05       	cpc	r17, r1
     7bc:	11 f4       	brne	.+4      	; 0x7c2 <Timebase_Timer_Config+0x64>
     7be:	93 e0       	ldi	r25, 0x03	; 3
     7c0:	0a c0       	rjmp	.+20     	; 0x7d6 <Timebase_Timer_Config+0x78>
      Prescaler_val=0x03;
    }else if(UpdateRateHz==16){
     7c2:	00 31       	cpi	r16, 0x10	; 16
     7c4:	11 05       	cpc	r17, r1
     7c6:	11 f4       	brne	.+4      	; 0x7cc <Timebase_Timer_Config+0x6e>
     7c8:	92 e0       	ldi	r25, 0x02	; 2
     7ca:	05 c0       	rjmp	.+10     	; 0x7d6 <Timebase_Timer_Config+0x78>
     7cc:	90 e0       	ldi	r25, 0x00	; 0
     7ce:	00 32       	cpi	r16, 0x20	; 32
     7d0:	11 05       	cpc	r17, r1
     7d2:	09 f4       	brne	.+2      	; 0x7d6 <Timebase_Timer_Config+0x78>
     7d4:	91 e0       	ldi	r25, 0x01	; 1
    }else if(UpdateRateHz==64){
      Prescaler_val=0x00;
    }else{
      Prescaler_val=0x00;
    }
    cli();
     7d6:	f8 94       	cli
    MCUSR  &=~(1<<WDRF);
     7d8:	84 b7       	in	r24, 0x34	; 52
     7da:	87 7f       	andi	r24, 0xF7	; 247
     7dc:	84 bf       	out	0x34, r24	; 52
    WDTCSR |= (1<<WDIF);
     7de:	80 91 60 00 	lds	r24, 0x0060
     7e2:	80 68       	ori	r24, 0x80	; 128
     7e4:	80 93 60 00 	sts	0x0060, r24
    WDTCSR |= (1<<WDCE)|(1<<WDE);
     7e8:	80 91 60 00 	lds	r24, 0x0060
     7ec:	88 61       	ori	r24, 0x18	; 24
     7ee:	80 93 60 00 	sts	0x0060, r24
    WDTCSR  = (1<<WDIE)|Prescaler_val;
     7f2:	90 64       	ori	r25, 0x40	; 64
     7f4:	90 93 60 00 	sts	0x0060, r25
    sei();
     7f8:	78 94       	sei
     7fa:	67 c0       	rjmp	.+206    	; 0x8ca <Timebase_Timer_Config+0x16c>
  }else if(Timebase->Config.TimerType.RealTimeCounter == 1){
     7fc:	81 fd       	sbrc	r24, 1
     7fe:	65 c0       	rjmp	.+202    	; 0x8ca <Timebase_Timer_Config+0x16c>
    //add rtc functions
  }else if(Timebase->Config.TimerType.GeneralTimer == 1){
     800:	82 ff       	sbrs	r24, 2
     802:	63 c0       	rjmp	.+198    	; 0x8ca <Timebase_Timer_Config+0x16c>
    
	uint32_t temp=F_CPU;
	uint16_t clock_div_factor[5]={1,8,64,256,1024};
     804:	de 01       	movw	r26, r28
     806:	11 96       	adiw	r26, 0x01	; 1
     808:	e5 e0       	ldi	r30, 0x05	; 5
     80a:	f1 e0       	ldi	r31, 0x01	; 1
     80c:	8a e0       	ldi	r24, 0x0A	; 10
     80e:	01 90       	ld	r0, Z+
     810:	0d 92       	st	X+, r0
     812:	81 50       	subi	r24, 0x01	; 1
     814:	e1 f7       	brne	.-8      	; 0x80e <Timebase_Timer_Config+0xb0>
	
	temp/=UpdateRateHz;
     816:	98 01       	movw	r18, r16
     818:	40 e0       	ldi	r20, 0x00	; 0
     81a:	50 e0       	ldi	r21, 0x00	; 0
     81c:	60 e0       	ldi	r22, 0x00	; 0
     81e:	7b e1       	ldi	r23, 0x1B	; 27
     820:	87 eb       	ldi	r24, 0xB7	; 183
     822:	90 e0       	ldi	r25, 0x00	; 0
     824:	0e 94 8b 14 	call	0x2916	; 0x2916 <__udivmodsi4>
     828:	72 2e       	mov	r7, r18
     82a:	83 2e       	mov	r8, r19
     82c:	94 2e       	mov	r9, r20
     82e:	e5 2e       	mov	r14, r21
     830:	5e 01       	movw	r10, r28
     832:	08 94       	sec
     834:	a1 1c       	adc	r10, r1
     836:	b1 1c       	adc	r11, r1
     838:	c9 01       	movw	r24, r18
     83a:	da 01       	movw	r26, r20
     83c:	9c 01       	movw	r18, r24
     83e:	ad 01       	movw	r20, r26
     840:	ff 24       	eor	r15, r15
     842:	14 c0       	rjmp	.+40     	; 0x86c <Timebase_Timer_Config+0x10e>
	uint8_t  clock_div_index=0;
	uint32_t curr_freq=temp;
	
	while( curr_freq > 0xFF ){
	  curr_freq=temp;
	  curr_freq/=clock_div_factor[clock_div_index];
     844:	f5 01       	movw	r30, r10
     846:	21 91       	ld	r18, Z+
     848:	31 91       	ld	r19, Z+
     84a:	5f 01       	movw	r10, r30
     84c:	40 e0       	ldi	r20, 0x00	; 0
     84e:	50 e0       	ldi	r21, 0x00	; 0
     850:	67 2d       	mov	r22, r7
     852:	78 2d       	mov	r23, r8
     854:	89 2d       	mov	r24, r9
     856:	9e 2d       	mov	r25, r14
     858:	0e 94 8b 14 	call	0x2916	; 0x2916 <__udivmodsi4>
     85c:	c9 01       	movw	r24, r18
     85e:	da 01       	movw	r26, r20
     860:	9c 01       	movw	r18, r24
     862:	ad 01       	movw	r20, r26
	  clock_div_index++;
     864:	f3 94       	inc	r15
	  if(clock_div_index == 5){
     866:	f5 e0       	ldi	r31, 0x05	; 5
     868:	ff 16       	cp	r15, r31
     86a:	31 f0       	breq	.+12     	; 0x878 <Timebase_Timer_Config+0x11a>
	temp/=UpdateRateHz;
	
	uint8_t  clock_div_index=0;
	uint32_t curr_freq=temp;
	
	while( curr_freq > 0xFF ){
     86c:	2f 3f       	cpi	r18, 0xFF	; 255
     86e:	31 05       	cpc	r19, r1
     870:	41 05       	cpc	r20, r1
     872:	51 05       	cpc	r21, r1
     874:	09 f0       	breq	.+2      	; 0x878 <Timebase_Timer_Config+0x11a>
     876:	30 f7       	brcc	.-52     	; 0x844 <Timebase_Timer_Config+0xe6>
	  if(clock_div_index == 5){
	    break;
	  }
	}
	
	clock_div_index-=1;
     878:	8f 2d       	mov	r24, r15
     87a:	81 50       	subi	r24, 0x01	; 1
	
	TCCR0A = 0x00;
     87c:	14 bc       	out	0x24, r1	; 36
    TCCR0B = 0x00;
     87e:	15 bc       	out	0x25, r1	; 37
    TIMSK0 = 0x00;
     880:	10 92 6e 00 	sts	0x006E, r1
    TIFR0  = 0x00;
     884:	15 ba       	out	0x15, r1	; 21
    OCR0A  = 0x00;
     886:	17 bc       	out	0x27, r1	; 39
    OCR0B  = 0x00;
     888:	18 bc       	out	0x28, r1	; 40
    TCNT0  = 0x00;
     88a:	16 bc       	out	0x26, r1	; 38
    OCR0A  = 0x00;
     88c:	17 bc       	out	0x27, r1	; 39
	
	if(clock_div_index == 0){
     88e:	88 23       	and	r24, r24
     890:	11 f4       	brne	.+4      	; 0x896 <Timebase_Timer_Config+0x138>
	  TCCR0B = (1<<CS00);
     892:	81 e0       	ldi	r24, 0x01	; 1
     894:	0f c0       	rjmp	.+30     	; 0x8b4 <Timebase_Timer_Config+0x156>
	}else if(clock_div_index == 1){
     896:	81 30       	cpi	r24, 0x01	; 1
     898:	11 f4       	brne	.+4      	; 0x89e <Timebase_Timer_Config+0x140>
	  TCCR0B = (1<<CS01);
     89a:	82 e0       	ldi	r24, 0x02	; 2
     89c:	0b c0       	rjmp	.+22     	; 0x8b4 <Timebase_Timer_Config+0x156>
	}else if(clock_div_index == 2){
     89e:	82 30       	cpi	r24, 0x02	; 2
     8a0:	11 f4       	brne	.+4      	; 0x8a6 <Timebase_Timer_Config+0x148>
	  TCCR0B = (1<<CS00)|(1<<CS01);
     8a2:	83 e0       	ldi	r24, 0x03	; 3
     8a4:	07 c0       	rjmp	.+14     	; 0x8b4 <Timebase_Timer_Config+0x156>
	}else if(clock_div_index == 3){
     8a6:	83 30       	cpi	r24, 0x03	; 3
     8a8:	11 f4       	brne	.+4      	; 0x8ae <Timebase_Timer_Config+0x150>
	  TCCR0B = (1<<CS02);
     8aa:	84 e0       	ldi	r24, 0x04	; 4
     8ac:	03 c0       	rjmp	.+6      	; 0x8b4 <Timebase_Timer_Config+0x156>
	}else if(clock_div_index == 4){
     8ae:	84 30       	cpi	r24, 0x04	; 4
     8b0:	11 f4       	brne	.+4      	; 0x8b6 <Timebase_Timer_Config+0x158>
	  TCCR0B = (1<<CS00)|(1<<CS02);
     8b2:	85 e0       	ldi	r24, 0x05	; 5
     8b4:	85 bd       	out	0x25, r24	; 37
	}
	
	Timebase->Time.OVFUpdateValue = 0xFF-curr_freq;
     8b6:	82 2f       	mov	r24, r18
     8b8:	80 95       	com	r24
     8ba:	f6 01       	movw	r30, r12
     8bc:	83 83       	std	Z+3, r24	; 0x03
	TCNT0  = Timebase->Time.OVFUpdateValue;
     8be:	83 81       	ldd	r24, Z+3	; 0x03
     8c0:	86 bd       	out	0x26, r24	; 38
	TIMSK0 = (1<<TOIE0);
     8c2:	81 e0       	ldi	r24, 0x01	; 1
     8c4:	80 93 6e 00 	sts	0x006E, r24
    sei();
     8c8:	78 94       	sei
  }
  Timebase->Config.UpdateRate=UpdateRateHz;
     8ca:	f6 01       	movw	r30, r12
     8cc:	12 83       	std	Z+2, r17	; 0x02
     8ce:	01 83       	std	Z+1, r16	; 0x01
}
     8d0:	2a 96       	adiw	r28, 0x0a	; 10
     8d2:	0f b6       	in	r0, 0x3f	; 63
     8d4:	f8 94       	cli
     8d6:	de bf       	out	0x3e, r29	; 62
     8d8:	0f be       	out	0x3f, r0	; 63
     8da:	cd bf       	out	0x3d, r28	; 61
     8dc:	cf 91       	pop	r28
     8de:	df 91       	pop	r29
     8e0:	1f 91       	pop	r17
     8e2:	0f 91       	pop	r16
     8e4:	ff 90       	pop	r15
     8e6:	ef 90       	pop	r14
     8e8:	df 90       	pop	r13
     8ea:	cf 90       	pop	r12
     8ec:	bf 90       	pop	r11
     8ee:	af 90       	pop	r10
     8f0:	9f 90       	pop	r9
     8f2:	8f 90       	pop	r8
     8f4:	7f 90       	pop	r7
     8f6:	08 95       	ret

000008f8 <Timebase_Token_Executing>:


//Token Functions
#ifdef TIMEBASE_TOKEN_FUNCTIONS
uint8_t Timebase_Token_Executing(void){
  return Timebase->ActiveTokens;
     8f8:	e0 91 41 01 	lds	r30, 0x0141
     8fc:	f0 91 42 01 	lds	r31, 0x0142
     900:	81 8d       	ldd	r24, Z+25	; 0x19
}
     902:	08 95       	ret

00000904 <Timebase_Token_Add>:


//Token Functions
#ifdef TIMEBASE_TOKEN_FUNCTIONS
uint8_t Timebase_Token_Executing(void){
  return Timebase->ActiveTokens;
     904:	e0 91 41 01 	lds	r30, 0x0141
     908:	f0 91 42 01 	lds	r31, 0x0142
     90c:	81 8d       	ldd	r24, Z+25	; 0x19
}

void Timebase_Token_Add(void){ 
  if( Timebase_Token_Executing() < 63){
     90e:	8f 33       	cpi	r24, 0x3F	; 63
     910:	18 f4       	brcc	.+6      	; 0x918 <Timebase_Token_Add+0x14>
    Timebase->ActiveTokens+=1;
     912:	81 8d       	ldd	r24, Z+25	; 0x19
     914:	8f 5f       	subi	r24, 0xFF	; 255
     916:	81 8f       	std	Z+25, r24	; 0x19
     918:	08 95       	ret

0000091a <Timebase_Token_Remove>:


//Token Functions
#ifdef TIMEBASE_TOKEN_FUNCTIONS
uint8_t Timebase_Token_Executing(void){
  return Timebase->ActiveTokens;
     91a:	e0 91 41 01 	lds	r30, 0x0141
     91e:	f0 91 42 01 	lds	r31, 0x0142
     922:	81 8d       	ldd	r24, Z+25	; 0x19
    Timebase->ActiveTokens+=1;
  }
}

void Timebase_Token_Remove(void){
  if( Timebase_Token_Executing() > 0){
     924:	88 23       	and	r24, r24
     926:	19 f0       	breq	.+6      	; 0x92e <Timebase_Token_Remove+0x14>
    Timebase->ActiveTokens-=1;
     928:	81 8d       	ldd	r24, Z+25	; 0x19
     92a:	81 50       	subi	r24, 0x01	; 1
     92c:	81 8f       	std	Z+25, r24	; 0x19
     92e:	08 95       	ret

00000930 <Timebase_Token_Remove_All>:
  }
}

void Timebase_Token_Remove_All(void){
  Timebase->ActiveTokens=0;
     930:	e0 91 41 01 	lds	r30, 0x0141
     934:	f0 91 42 01 	lds	r31, 0x0142
     938:	11 8e       	std	Z+25, r1	; 0x19
}
     93a:	08 95       	ret

0000093c <Timebase_Timer_Get_SubSeconds>:
#endif


//Timer Functions
uint32_t Timebase_Timer_Get_SubSeconds(void){
  return Timebase->Time.SubSeconds;
     93c:	e0 91 41 01 	lds	r30, 0x0141
     940:	f0 91 42 01 	lds	r31, 0x0142
     944:	20 85       	ldd	r18, Z+8	; 0x08
     946:	31 85       	ldd	r19, Z+9	; 0x09
     948:	42 85       	ldd	r20, Z+10	; 0x0a
     94a:	53 85       	ldd	r21, Z+11	; 0x0b
}
     94c:	b9 01       	movw	r22, r18
     94e:	ca 01       	movw	r24, r20
     950:	08 95       	ret

00000952 <Timebase_Timer_Get_Seconds>:

uint32_t Timebase_Timer_Get_Seconds(void){
  return Timebase->Time.Seconds;
     952:	e0 91 41 01 	lds	r30, 0x0141
     956:	f0 91 42 01 	lds	r31, 0x0142
     95a:	24 85       	ldd	r18, Z+12	; 0x0c
     95c:	35 85       	ldd	r19, Z+13	; 0x0d
     95e:	46 85       	ldd	r20, Z+14	; 0x0e
     960:	57 85       	ldd	r21, Z+15	; 0x0f
}
     962:	b9 01       	movw	r22, r18
     964:	ca 01       	movw	r24, r20
     966:	08 95       	ret

00000968 <Timebase_Timer_Set_SubSeconds>:

void Timebase_Timer_Set_SubSeconds(uint32_t value){
  Timebase->Time.SubSeconds=value;
     968:	e0 91 41 01 	lds	r30, 0x0141
     96c:	f0 91 42 01 	lds	r31, 0x0142
     970:	60 87       	std	Z+8, r22	; 0x08
     972:	71 87       	std	Z+9, r23	; 0x09
     974:	82 87       	std	Z+10, r24	; 0x0a
     976:	93 87       	std	Z+11, r25	; 0x0b
}
     978:	08 95       	ret

0000097a <Timebase_Timer_Set_Seconds>:

void Timebase_Timer_Set_Seconds(uint32_t value){
  Timebase->Time.Seconds=value;
     97a:	e0 91 41 01 	lds	r30, 0x0141
     97e:	f0 91 42 01 	lds	r31, 0x0142
     982:	64 87       	std	Z+12, r22	; 0x0c
     984:	75 87       	std	Z+13, r23	; 0x0d
     986:	86 87       	std	Z+14, r24	; 0x0e
     988:	97 87       	std	Z+15, r25	; 0x0f
}
     98a:	08 95       	ret

0000098c <Timebase_Timer_Delay_SubSeconds>:

void Timebase_Timer_Delay_SubSeconds(uint16_t value){
     98c:	9c 01       	movw	r18, r24


//Token Functions
#ifdef TIMEBASE_TOKEN_FUNCTIONS
uint8_t Timebase_Token_Executing(void){
  return Timebase->ActiveTokens;
     98e:	e0 91 41 01 	lds	r30, 0x0141
     992:	f0 91 42 01 	lds	r31, 0x0142
     996:	81 8d       	ldd	r24, Z+25	; 0x19
}

void Timebase_Token_Add(void){ 
  if( Timebase_Token_Executing() < 63){
     998:	8f 33       	cpi	r24, 0x3F	; 63
     99a:	18 f4       	brcc	.+6      	; 0x9a2 <Timebase_Timer_Delay_SubSeconds+0x16>
    Timebase->ActiveTokens+=1;
     99c:	81 8d       	ldd	r24, Z+25	; 0x19
     99e:	8f 5f       	subi	r24, 0xFF	; 255
     9a0:	81 8f       	std	Z+25, r24	; 0x19
#endif


//Timer Functions
uint32_t Timebase_Timer_Get_SubSeconds(void){
  return Timebase->Time.SubSeconds;
     9a2:	80 85       	ldd	r24, Z+8	; 0x08
     9a4:	91 85       	ldd	r25, Z+9	; 0x09
     9a6:	a2 85       	ldd	r26, Z+10	; 0x0a
     9a8:	b3 85       	ldd	r27, Z+11	; 0x0b
void Timebase_Timer_Delay_SubSeconds(uint16_t value){
  #ifdef TIMEBASE_TOKEN_FUNCTIONS
  Timebase_Token_Add();
  #endif
  
  uint32_t temp = Timebase_Timer_Get_SubSeconds() + value;
     9aa:	40 e0       	ldi	r20, 0x00	; 0
     9ac:	50 e0       	ldi	r21, 0x00	; 0
     9ae:	28 0f       	add	r18, r24
     9b0:	39 1f       	adc	r19, r25
     9b2:	4a 1f       	adc	r20, r26
     9b4:	5b 1f       	adc	r21, r27
#endif


//Timer Functions
uint32_t Timebase_Timer_Get_SubSeconds(void){
  return Timebase->Time.SubSeconds;
     9b6:	80 85       	ldd	r24, Z+8	; 0x08
     9b8:	91 85       	ldd	r25, Z+9	; 0x09
     9ba:	a2 85       	ldd	r26, Z+10	; 0x0a
     9bc:	b3 85       	ldd	r27, Z+11	; 0x0b
  #ifdef TIMEBASE_TOKEN_FUNCTIONS
  Timebase_Token_Add();
  #endif
  
  uint32_t temp = Timebase_Timer_Get_SubSeconds() + value;
  while(temp > Timebase_Timer_Get_SubSeconds());
     9be:	82 17       	cp	r24, r18
     9c0:	93 07       	cpc	r25, r19
     9c2:	a4 07       	cpc	r26, r20
     9c4:	b5 07       	cpc	r27, r21
     9c6:	b8 f3       	brcs	.-18     	; 0x9b6 <Timebase_Timer_Delay_SubSeconds+0x2a>


//Token Functions
#ifdef TIMEBASE_TOKEN_FUNCTIONS
uint8_t Timebase_Token_Executing(void){
  return Timebase->ActiveTokens;
     9c8:	81 8d       	ldd	r24, Z+25	; 0x19
    Timebase->ActiveTokens+=1;
  }
}

void Timebase_Token_Remove(void){
  if( Timebase_Token_Executing() > 0){
     9ca:	88 23       	and	r24, r24
     9cc:	19 f0       	breq	.+6      	; 0x9d4 <Timebase_Timer_Delay_SubSeconds+0x48>
    Timebase->ActiveTokens-=1;
     9ce:	81 8d       	ldd	r24, Z+25	; 0x19
     9d0:	81 50       	subi	r24, 0x01	; 1
     9d2:	81 8f       	std	Z+25, r24	; 0x19
     9d4:	08 95       	ret

000009d6 <Timebase_Timer_Await_SubSeconds>:
  #endif
}


////////////////////////////
void Timebase_Timer_Await_SubSeconds(uint16_t value){
     9d6:	bc 01       	movw	r22, r24
#endif


//Timer Functions
uint32_t Timebase_Timer_Get_SubSeconds(void){
  return Timebase->Time.SubSeconds;
     9d8:	e0 91 41 01 	lds	r30, 0x0141
     9dc:	f0 91 42 01 	lds	r31, 0x0142
     9e0:	20 85       	ldd	r18, Z+8	; 0x08
     9e2:	31 85       	ldd	r19, Z+9	; 0x09
     9e4:	42 85       	ldd	r20, Z+10	; 0x0a
     9e6:	53 85       	ldd	r21, Z+11	; 0x0b
  UART_Transmit_Number(Timebase_Timer_Get_SubSeconds());
  UART_Transmit_Text(" ELS: ");
  UART_Transmit_Number(Timebase->Time.LastSample);
  UART_Transmit_New_Line();*/
  
  while(Timebase_Timer_Get_SubSeconds()!=Timebase->Time.LastSample);
     9e8:	84 81       	ldd	r24, Z+4	; 0x04
     9ea:	95 81       	ldd	r25, Z+5	; 0x05
     9ec:	a6 81       	ldd	r26, Z+6	; 0x06
     9ee:	b7 81       	ldd	r27, Z+7	; 0x07
     9f0:	28 17       	cp	r18, r24
     9f2:	39 07       	cpc	r19, r25
     9f4:	4a 07       	cpc	r20, r26
     9f6:	5b 07       	cpc	r21, r27
     9f8:	99 f7       	brne	.-26     	; 0x9e0 <Timebase_Timer_Await_SubSeconds+0xa>
#endif


//Timer Functions
uint32_t Timebase_Timer_Get_SubSeconds(void){
  return Timebase->Time.SubSeconds;
     9fa:	20 85       	ldd	r18, Z+8	; 0x08
     9fc:	31 85       	ldd	r19, Z+9	; 0x09
     9fe:	42 85       	ldd	r20, Z+10	; 0x0a
     a00:	53 85       	ldd	r21, Z+11	; 0x0b
  UART_Transmit_Number(Timebase->Time.LastSample);
  UART_Transmit_New_Line();*/
  
  while(Timebase_Timer_Get_SubSeconds()!=Timebase->Time.LastSample);
  
  Timebase->Time.LastSample = Timebase_Timer_Get_SubSeconds()+value;
     a02:	cb 01       	movw	r24, r22
     a04:	a0 e0       	ldi	r26, 0x00	; 0
     a06:	b0 e0       	ldi	r27, 0x00	; 0
     a08:	82 0f       	add	r24, r18
     a0a:	93 1f       	adc	r25, r19
     a0c:	a4 1f       	adc	r26, r20
     a0e:	b5 1f       	adc	r27, r21
     a10:	84 83       	std	Z+4, r24	; 0x04
     a12:	95 83       	std	Z+5, r25	; 0x05
     a14:	a6 83       	std	Z+6, r26	; 0x06
     a16:	b7 83       	std	Z+7, r27	; 0x07
  if(Timebase->Time.LastSample >= Timebase->Config.UpdateRate){
     a18:	24 81       	ldd	r18, Z+4	; 0x04
     a1a:	35 81       	ldd	r19, Z+5	; 0x05
     a1c:	46 81       	ldd	r20, Z+6	; 0x06
     a1e:	57 81       	ldd	r21, Z+7	; 0x07
     a20:	81 81       	ldd	r24, Z+1	; 0x01
     a22:	92 81       	ldd	r25, Z+2	; 0x02
     a24:	a0 e0       	ldi	r26, 0x00	; 0
     a26:	b0 e0       	ldi	r27, 0x00	; 0
     a28:	28 17       	cp	r18, r24
     a2a:	39 07       	cpc	r19, r25
     a2c:	4a 07       	cpc	r20, r26
     a2e:	5b 07       	cpc	r21, r27
     a30:	80 f0       	brcs	.+32     	; 0xa52 <Timebase_Timer_Await_SubSeconds+0x7c>
    Timebase->Time.LastSample -= Timebase->Config.UpdateRate;
     a32:	24 81       	ldd	r18, Z+4	; 0x04
     a34:	35 81       	ldd	r19, Z+5	; 0x05
     a36:	46 81       	ldd	r20, Z+6	; 0x06
     a38:	57 81       	ldd	r21, Z+7	; 0x07
     a3a:	81 81       	ldd	r24, Z+1	; 0x01
     a3c:	92 81       	ldd	r25, Z+2	; 0x02
     a3e:	a0 e0       	ldi	r26, 0x00	; 0
     a40:	b0 e0       	ldi	r27, 0x00	; 0
     a42:	28 1b       	sub	r18, r24
     a44:	39 0b       	sbc	r19, r25
     a46:	4a 0b       	sbc	r20, r26
     a48:	5b 0b       	sbc	r21, r27
     a4a:	24 83       	std	Z+4, r18	; 0x04
     a4c:	35 83       	std	Z+5, r19	; 0x05
     a4e:	46 83       	std	Z+6, r20	; 0x06
     a50:	57 83       	std	Z+7, r21	; 0x07
     a52:	08 95       	ret

00000a54 <Timebase_Timer_Delay_Seconds>:
  UART_Transmit_New_Line();*/
  
}


void Timebase_Timer_Delay_Seconds(uint16_t value){
     a54:	ef 92       	push	r14
     a56:	ff 92       	push	r15
     a58:	0f 93       	push	r16
     a5a:	1f 93       	push	r17
uint32_t Timebase_Timer_Get_SubSeconds(void){
  return Timebase->Time.SubSeconds;
}

uint32_t Timebase_Timer_Get_Seconds(void){
  return Timebase->Time.Seconds;
     a5c:	e0 91 41 01 	lds	r30, 0x0141
     a60:	f0 91 42 01 	lds	r31, 0x0142
     a64:	24 85       	ldd	r18, Z+12	; 0x0c
     a66:	35 85       	ldd	r19, Z+13	; 0x0d
     a68:	46 85       	ldd	r20, Z+14	; 0x0e
     a6a:	57 85       	ldd	r21, Z+15	; 0x0f
  
}


void Timebase_Timer_Delay_Seconds(uint16_t value){
  uint32_t temp = Timebase_Timer_Get_Seconds() + value;
     a6c:	7c 01       	movw	r14, r24
     a6e:	00 e0       	ldi	r16, 0x00	; 0
     a70:	10 e0       	ldi	r17, 0x00	; 0
     a72:	e2 0e       	add	r14, r18
     a74:	f3 1e       	adc	r15, r19
     a76:	04 1f       	adc	r16, r20
     a78:	15 1f       	adc	r17, r21
#endif


//Timer Functions
uint32_t Timebase_Timer_Get_SubSeconds(void){
  return Timebase->Time.SubSeconds;
     a7a:	80 85       	ldd	r24, Z+8	; 0x08
     a7c:	91 85       	ldd	r25, Z+9	; 0x09
     a7e:	a2 85       	ldd	r26, Z+10	; 0x0a
     a80:	b3 85       	ldd	r27, Z+11	; 0x0b
}


void Timebase_Timer_Delay_Seconds(uint16_t value){
  uint32_t temp = Timebase_Timer_Get_Seconds() + value;
  while(temp > Timebase_Timer_Get_SubSeconds());
     a82:	8e 15       	cp	r24, r14
     a84:	9f 05       	cpc	r25, r15
     a86:	a0 07       	cpc	r26, r16
     a88:	b1 07       	cpc	r27, r17
     a8a:	b8 f3       	brcs	.-18     	; 0xa7a <Timebase_Timer_Delay_Seconds+0x26>
}
     a8c:	1f 91       	pop	r17
     a8e:	0f 91       	pop	r16
     a90:	ff 90       	pop	r15
     a92:	ef 90       	pop	r14
     a94:	08 95       	ret

00000a96 <Timebase_Window_Timer_Reset>:


void Timebase_Window_Timer_Reset(void){
  Timebase->Time.StartTimeSeconds=0;
     a96:	e0 91 41 01 	lds	r30, 0x0141
     a9a:	f0 91 42 01 	lds	r31, 0x0142
     a9e:	10 8a       	std	Z+16, r1	; 0x10
     aa0:	11 8a       	std	Z+17, r1	; 0x11
     aa2:	12 8a       	std	Z+18, r1	; 0x12
     aa4:	13 8a       	std	Z+19, r1	; 0x13
  Timebase->Time.StartTimeSubSeconds=0;
     aa6:	14 8a       	std	Z+20, r1	; 0x14
     aa8:	15 8a       	std	Z+21, r1	; 0x15
     aaa:	16 8a       	std	Z+22, r1	; 0x16
     aac:	17 8a       	std	Z+23, r1	; 0x17
  Timebase->Time.Status=0;
     aae:	10 8e       	std	Z+24, r1	; 0x18
}
     ab0:	08 95       	ret

00000ab2 <Timebase_Window_Timer_Start>:

void Timebase_Window_Timer_Start(void){
  if(Timebase->Time.Status==0){
     ab2:	e0 91 41 01 	lds	r30, 0x0141
     ab6:	f0 91 42 01 	lds	r31, 0x0142
     aba:	80 8d       	ldd	r24, Z+24	; 0x18
     abc:	88 23       	and	r24, r24
     abe:	91 f4       	brne	.+36     	; 0xae4 <Timebase_Window_Timer_Start+0x32>
uint32_t Timebase_Timer_Get_SubSeconds(void){
  return Timebase->Time.SubSeconds;
}

uint32_t Timebase_Timer_Get_Seconds(void){
  return Timebase->Time.Seconds;
     ac0:	84 85       	ldd	r24, Z+12	; 0x0c
     ac2:	95 85       	ldd	r25, Z+13	; 0x0d
     ac4:	a6 85       	ldd	r26, Z+14	; 0x0e
     ac6:	b7 85       	ldd	r27, Z+15	; 0x0f
  Timebase->Time.Status=0;
}

void Timebase_Window_Timer_Start(void){
  if(Timebase->Time.Status==0){
    Timebase->Time.StartTimeSeconds=Timebase_Timer_Get_Seconds();
     ac8:	80 8b       	std	Z+16, r24	; 0x10
     aca:	91 8b       	std	Z+17, r25	; 0x11
     acc:	a2 8b       	std	Z+18, r26	; 0x12
     ace:	b3 8b       	std	Z+19, r27	; 0x13
#endif


//Timer Functions
uint32_t Timebase_Timer_Get_SubSeconds(void){
  return Timebase->Time.SubSeconds;
     ad0:	80 85       	ldd	r24, Z+8	; 0x08
     ad2:	91 85       	ldd	r25, Z+9	; 0x09
     ad4:	a2 85       	ldd	r26, Z+10	; 0x0a
     ad6:	b3 85       	ldd	r27, Z+11	; 0x0b
}

void Timebase_Window_Timer_Start(void){
  if(Timebase->Time.Status==0){
    Timebase->Time.StartTimeSeconds=Timebase_Timer_Get_Seconds();
    Timebase->Time.StartTimeSubSeconds=Timebase_Timer_Get_SubSeconds();
     ad8:	84 8b       	std	Z+20, r24	; 0x14
     ada:	95 8b       	std	Z+21, r25	; 0x15
     adc:	a6 8b       	std	Z+22, r26	; 0x16
     ade:	b7 8b       	std	Z+23, r27	; 0x17
    Timebase->Time.Status=1;
     ae0:	81 e0       	ldi	r24, 0x01	; 1
     ae2:	80 8f       	std	Z+24, r24	; 0x18
     ae4:	08 95       	ret

00000ae6 <Timebase_Window_Timer_Get_Interval>:
  }
}

uint32_t Timebase_Window_Timer_Get_Interval(void){
     ae6:	ef 92       	push	r14
     ae8:	ff 92       	push	r15
     aea:	0f 93       	push	r16
     aec:	1f 93       	push	r17
     aee:	cf 93       	push	r28
     af0:	df 93       	push	r29
  if(Timebase->Time.Status){
     af2:	c0 91 41 01 	lds	r28, 0x0141
     af6:	d0 91 42 01 	lds	r29, 0x0142
     afa:	88 8d       	ldd	r24, Y+24	; 0x18
     afc:	88 23       	and	r24, r24
     afe:	21 f4       	brne	.+8      	; 0xb08 <Timebase_Window_Timer_Get_Interval+0x22>
     b00:	ee 24       	eor	r14, r14
     b02:	ff 24       	eor	r15, r15
     b04:	87 01       	movw	r16, r14
     b06:	22 c0       	rjmp	.+68     	; 0xb4c <Timebase_Window_Timer_Get_Interval+0x66>
uint32_t Timebase_Timer_Get_SubSeconds(void){
  return Timebase->Time.SubSeconds;
}

uint32_t Timebase_Timer_Get_Seconds(void){
  return Timebase->Time.Seconds;
     b08:	2c 85       	ldd	r18, Y+12	; 0x0c
     b0a:	3d 85       	ldd	r19, Y+13	; 0x0d
     b0c:	4e 85       	ldd	r20, Y+14	; 0x0e
     b0e:	5f 85       	ldd	r21, Y+15	; 0x0f
#endif


//Timer Functions
uint32_t Timebase_Timer_Get_SubSeconds(void){
  return Timebase->Time.SubSeconds;
     b10:	e8 84       	ldd	r14, Y+8	; 0x08
     b12:	f9 84       	ldd	r15, Y+9	; 0x09
     b14:	0a 85       	ldd	r16, Y+10	; 0x0a
     b16:	1b 85       	ldd	r17, Y+11	; 0x0b

uint32_t Timebase_Window_Timer_Get_Interval(void){
  if(Timebase->Time.Status){
    uint32_t curr_s =Timebase_Timer_Get_Seconds();
    uint32_t curr_ss=Timebase_Timer_Get_SubSeconds();
	curr_s-=Timebase->Time.StartTimeSeconds;
     b18:	88 89       	ldd	r24, Y+16	; 0x10
     b1a:	99 89       	ldd	r25, Y+17	; 0x11
     b1c:	aa 89       	ldd	r26, Y+18	; 0x12
     b1e:	bb 89       	ldd	r27, Y+19	; 0x13
     b20:	28 1b       	sub	r18, r24
     b22:	39 0b       	sbc	r19, r25
     b24:	4a 0b       	sbc	r20, r26
     b26:	5b 0b       	sbc	r21, r27
	curr_ss-=Timebase->Time.StartTimeSubSeconds;
	curr_s*=Timebase->Config.UpdateRate;
     b28:	69 81       	ldd	r22, Y+1	; 0x01
     b2a:	7a 81       	ldd	r23, Y+2	; 0x02
     b2c:	80 e0       	ldi	r24, 0x00	; 0
     b2e:	90 e0       	ldi	r25, 0x00	; 0
     b30:	0e 94 58 14 	call	0x28b0	; 0x28b0 <__mulsi3>
	curr_s+=curr_ss;
     b34:	2c 89       	ldd	r18, Y+20	; 0x14
     b36:	3d 89       	ldd	r19, Y+21	; 0x15
     b38:	4e 89       	ldd	r20, Y+22	; 0x16
     b3a:	5f 89       	ldd	r21, Y+23	; 0x17
     b3c:	e2 1a       	sub	r14, r18
     b3e:	f3 0a       	sbc	r15, r19
     b40:	04 0b       	sbc	r16, r20
     b42:	15 0b       	sbc	r17, r21
     b44:	e6 0e       	add	r14, r22
     b46:	f7 1e       	adc	r15, r23
     b48:	08 1f       	adc	r16, r24
     b4a:	19 1f       	adc	r17, r25
	return curr_s;
  }else{
    return 0;
  }
}
     b4c:	b7 01       	movw	r22, r14
     b4e:	c8 01       	movw	r24, r16
     b50:	df 91       	pop	r29
     b52:	cf 91       	pop	r28
     b54:	1f 91       	pop	r17
     b56:	0f 91       	pop	r16
     b58:	ff 90       	pop	r15
     b5a:	ef 90       	pop	r14
     b5c:	08 95       	ret

00000b5e <Timebase_Window_Timer_Get_Interval_Reset>:

uint32_t Timebase_Window_Timer_Get_Interval_Reset(void){
  uint32_t val=Timebase_Window_Timer_Get_Interval();
     b5e:	0e 94 73 05 	call	0xae6	; 0xae6 <Timebase_Window_Timer_Get_Interval>
     b62:	28 2f       	mov	r18, r24
  if(Timebase->Time.Status){
     b64:	e0 91 41 01 	lds	r30, 0x0141
     b68:	f0 91 42 01 	lds	r31, 0x0142
     b6c:	80 8d       	ldd	r24, Z+24	; 0x18
     b6e:	88 23       	and	r24, r24
     b70:	49 f0       	breq	.+18     	; 0xb84 <Timebase_Window_Timer_Get_Interval_Reset+0x26>
  while(temp > Timebase_Timer_Get_SubSeconds());
}


void Timebase_Window_Timer_Reset(void){
  Timebase->Time.StartTimeSeconds=0;
     b72:	10 8a       	std	Z+16, r1	; 0x10
     b74:	11 8a       	std	Z+17, r1	; 0x11
     b76:	12 8a       	std	Z+18, r1	; 0x12
     b78:	13 8a       	std	Z+19, r1	; 0x13
  Timebase->Time.StartTimeSubSeconds=0;
     b7a:	14 8a       	std	Z+20, r1	; 0x14
     b7c:	15 8a       	std	Z+21, r1	; 0x15
     b7e:	16 8a       	std	Z+22, r1	; 0x16
     b80:	17 8a       	std	Z+23, r1	; 0x17
  Timebase->Time.Status=0;
     b82:	10 8e       	std	Z+24, r1	; 0x18
  uint32_t val=Timebase_Window_Timer_Get_Interval();
  if(Timebase->Time.Status){
    Timebase_Window_Timer_Reset();
  }
  return val;
}
     b84:	82 2f       	mov	r24, r18
     b86:	08 95       	ret

00000b88 <Timebase_UpCounter_Get_Status>:



//UpCounter Functions
#ifdef TIMEBASE_UPCOUNTER
uint8_t Timebase_UpCounter_Get_Status(uint8_t window){
     b88:	e0 91 41 01 	lds	r30, 0x0141
     b8c:	f0 91 42 01 	lds	r31, 0x0142
     b90:	90 e0       	ldi	r25, 0x00	; 0
     b92:	25 e1       	ldi	r18, 0x15	; 21
     b94:	30 e0       	ldi	r19, 0x00	; 0
     b96:	ac 01       	movw	r20, r24
     b98:	42 9f       	mul	r20, r18
     b9a:	c0 01       	movw	r24, r0
     b9c:	43 9f       	mul	r20, r19
     b9e:	90 0d       	add	r25, r0
     ba0:	52 9f       	mul	r21, r18
     ba2:	90 0d       	add	r25, r0
     ba4:	11 24       	eor	r1, r1
     ba6:	e8 0f       	add	r30, r24
     ba8:	f9 1f       	adc	r31, r25
     baa:	82 8d       	ldd	r24, Z+26	; 0x1a
     bac:	86 95       	lsr	r24
  return Timebase->UpCounter[window].Status.Value;
}
     bae:	8f 70       	andi	r24, 0x0F	; 15
     bb0:	08 95       	ret

00000bb2 <Timebase_UpCounter_Set_Status>:

void Timebase_UpCounter_Set_Status(uint8_t window, uint8_t value){
  Timebase->UpCounter[window].Status.Value = value;
     bb2:	e0 91 41 01 	lds	r30, 0x0141
     bb6:	f0 91 42 01 	lds	r31, 0x0142
     bba:	90 e0       	ldi	r25, 0x00	; 0
     bbc:	25 e1       	ldi	r18, 0x15	; 21
     bbe:	30 e0       	ldi	r19, 0x00	; 0
     bc0:	ac 01       	movw	r20, r24
     bc2:	42 9f       	mul	r20, r18
     bc4:	c0 01       	movw	r24, r0
     bc6:	43 9f       	mul	r20, r19
     bc8:	90 0d       	add	r25, r0
     bca:	52 9f       	mul	r21, r18
     bcc:	90 0d       	add	r25, r0
     bce:	11 24       	eor	r1, r1
     bd0:	e8 0f       	add	r30, r24
     bd2:	f9 1f       	adc	r31, r25
     bd4:	6f 70       	andi	r22, 0x0F	; 15
     bd6:	66 0f       	add	r22, r22
     bd8:	82 8d       	ldd	r24, Z+26	; 0x1a
     bda:	81 7e       	andi	r24, 0xE1	; 225
     bdc:	86 2b       	or	r24, r22
     bde:	82 8f       	std	Z+26, r24	; 0x1a
}
     be0:	08 95       	ret

00000be2 <Timebase_UpCounter_Get_Value>:

uint32_t Timebase_UpCounter_Get_Value(uint8_t window){
     be2:	e0 91 41 01 	lds	r30, 0x0141
     be6:	f0 91 42 01 	lds	r31, 0x0142
     bea:	90 e0       	ldi	r25, 0x00	; 0
     bec:	25 e1       	ldi	r18, 0x15	; 21
     bee:	30 e0       	ldi	r19, 0x00	; 0
     bf0:	ac 01       	movw	r20, r24
     bf2:	42 9f       	mul	r20, r18
     bf4:	c0 01       	movw	r24, r0
     bf6:	43 9f       	mul	r20, r19
     bf8:	90 0d       	add	r25, r0
     bfa:	52 9f       	mul	r21, r18
     bfc:	90 0d       	add	r25, r0
     bfe:	11 24       	eor	r1, r1
     c00:	e8 0f       	add	r30, r24
     c02:	f9 1f       	adc	r31, r25
     c04:	df 01       	movw	r26, r30
     c06:	97 96       	adiw	r26, 0x27	; 39
     c08:	67 a1       	ldd	r22, Z+39	; 0x27
     c0a:	11 96       	adiw	r26, 0x01	; 1
     c0c:	7c 91       	ld	r23, X
     c0e:	11 97       	sbiw	r26, 0x01	; 1
  return (uint32_t)Timebase->UpCounter[window].Value;
}
     c10:	12 96       	adiw	r26, 0x02	; 2
     c12:	8c 91       	ld	r24, X
     c14:	12 97       	sbiw	r26, 0x02	; 2
     c16:	13 96       	adiw	r26, 0x03	; 3
     c18:	9c 91       	ld	r25, X
     c1a:	08 95       	ret

00000c1c <Timebase_UpCounter_Set_Value>:

void Timebase_UpCounter_Set_Value(uint8_t window, uint32_t value){
  Timebase->UpCounter[window].Value = value;
     c1c:	e0 91 41 01 	lds	r30, 0x0141
     c20:	f0 91 42 01 	lds	r31, 0x0142
     c24:	90 e0       	ldi	r25, 0x00	; 0
     c26:	25 e1       	ldi	r18, 0x15	; 21
     c28:	30 e0       	ldi	r19, 0x00	; 0
     c2a:	dc 01       	movw	r26, r24
     c2c:	a2 9f       	mul	r26, r18
     c2e:	c0 01       	movw	r24, r0
     c30:	a3 9f       	mul	r26, r19
     c32:	90 0d       	add	r25, r0
     c34:	b2 9f       	mul	r27, r18
     c36:	90 0d       	add	r25, r0
     c38:	11 24       	eor	r1, r1
     c3a:	e8 0f       	add	r30, r24
     c3c:	f9 1f       	adc	r31, r25
     c3e:	47 a3       	std	Z+39, r20	; 0x27
     c40:	50 a7       	std	Z+40, r21	; 0x28
     c42:	61 a7       	std	Z+41, r22	; 0x29
     c44:	72 a7       	std	Z+42, r23	; 0x2a
}
     c46:	08 95       	ret

00000c48 <Timebase_UpCounter_Get_EndValue>:

uint32_t Timebase_UpCounter_Get_EndValue(uint8_t window){
     c48:	e0 91 41 01 	lds	r30, 0x0141
     c4c:	f0 91 42 01 	lds	r31, 0x0142
     c50:	90 e0       	ldi	r25, 0x00	; 0
     c52:	25 e1       	ldi	r18, 0x15	; 21
     c54:	30 e0       	ldi	r19, 0x00	; 0
     c56:	ac 01       	movw	r20, r24
     c58:	42 9f       	mul	r20, r18
     c5a:	c0 01       	movw	r24, r0
     c5c:	43 9f       	mul	r20, r19
     c5e:	90 0d       	add	r25, r0
     c60:	52 9f       	mul	r21, r18
     c62:	90 0d       	add	r25, r0
     c64:	11 24       	eor	r1, r1
     c66:	e8 0f       	add	r30, r24
     c68:	f9 1f       	adc	r31, r25
     c6a:	df 01       	movw	r26, r30
     c6c:	5b 96       	adiw	r26, 0x1b	; 27
     c6e:	63 8d       	ldd	r22, Z+27	; 0x1b
     c70:	11 96       	adiw	r26, 0x01	; 1
     c72:	7c 91       	ld	r23, X
     c74:	11 97       	sbiw	r26, 0x01	; 1
  return (uint32_t)Timebase->UpCounter[window].EndValue;
}
     c76:	12 96       	adiw	r26, 0x02	; 2
     c78:	8c 91       	ld	r24, X
     c7a:	12 97       	sbiw	r26, 0x02	; 2
     c7c:	13 96       	adiw	r26, 0x03	; 3
     c7e:	9c 91       	ld	r25, X
     c80:	08 95       	ret

00000c82 <Timebase_UpCounter_Set_EndValue>:

void Timebase_UpCounter_Set_EndValue(uint8_t window, uint32_t value){
  Timebase->UpCounter[window].EndValue = value;
     c82:	e0 91 41 01 	lds	r30, 0x0141
     c86:	f0 91 42 01 	lds	r31, 0x0142
     c8a:	90 e0       	ldi	r25, 0x00	; 0
     c8c:	25 e1       	ldi	r18, 0x15	; 21
     c8e:	30 e0       	ldi	r19, 0x00	; 0
     c90:	dc 01       	movw	r26, r24
     c92:	a2 9f       	mul	r26, r18
     c94:	c0 01       	movw	r24, r0
     c96:	a3 9f       	mul	r26, r19
     c98:	90 0d       	add	r25, r0
     c9a:	b2 9f       	mul	r27, r18
     c9c:	90 0d       	add	r25, r0
     c9e:	11 24       	eor	r1, r1
     ca0:	e8 0f       	add	r30, r24
     ca2:	f9 1f       	adc	r31, r25
     ca4:	43 8f       	std	Z+27, r20	; 0x1b
     ca6:	54 8f       	std	Z+28, r21	; 0x1c
     ca8:	65 8f       	std	Z+29, r22	; 0x1d
     caa:	76 8f       	std	Z+30, r23	; 0x1e
}
     cac:	08 95       	ret

00000cae <Timebase_UpCounter_Get_TargetValue>:

uint32_t Timebase_UpCounter_Get_TargetValue(uint8_t window){
     cae:	e0 91 41 01 	lds	r30, 0x0141
     cb2:	f0 91 42 01 	lds	r31, 0x0142
     cb6:	90 e0       	ldi	r25, 0x00	; 0
     cb8:	25 e1       	ldi	r18, 0x15	; 21
     cba:	30 e0       	ldi	r19, 0x00	; 0
     cbc:	ac 01       	movw	r20, r24
     cbe:	42 9f       	mul	r20, r18
     cc0:	c0 01       	movw	r24, r0
     cc2:	43 9f       	mul	r20, r19
     cc4:	90 0d       	add	r25, r0
     cc6:	52 9f       	mul	r21, r18
     cc8:	90 0d       	add	r25, r0
     cca:	11 24       	eor	r1, r1
     ccc:	e8 0f       	add	r30, r24
     cce:	f9 1f       	adc	r31, r25
     cd0:	df 01       	movw	r26, r30
     cd2:	5f 96       	adiw	r26, 0x1f	; 31
     cd4:	67 8d       	ldd	r22, Z+31	; 0x1f
     cd6:	11 96       	adiw	r26, 0x01	; 1
     cd8:	7c 91       	ld	r23, X
     cda:	11 97       	sbiw	r26, 0x01	; 1
  return (uint32_t)Timebase->UpCounter[window].Target;
}
     cdc:	12 96       	adiw	r26, 0x02	; 2
     cde:	8c 91       	ld	r24, X
     ce0:	12 97       	sbiw	r26, 0x02	; 2
     ce2:	13 96       	adiw	r26, 0x03	; 3
     ce4:	9c 91       	ld	r25, X
     ce6:	08 95       	ret

00000ce8 <Timebase_UpCounter_Set_TargetValue>:

void Timebase_UpCounter_Set_TargetValue(uint8_t window, uint32_t value){
  Timebase->UpCounter[window].Target = value;
     ce8:	e0 91 41 01 	lds	r30, 0x0141
     cec:	f0 91 42 01 	lds	r31, 0x0142
     cf0:	90 e0       	ldi	r25, 0x00	; 0
     cf2:	25 e1       	ldi	r18, 0x15	; 21
     cf4:	30 e0       	ldi	r19, 0x00	; 0
     cf6:	dc 01       	movw	r26, r24
     cf8:	a2 9f       	mul	r26, r18
     cfa:	c0 01       	movw	r24, r0
     cfc:	a3 9f       	mul	r26, r19
     cfe:	90 0d       	add	r25, r0
     d00:	b2 9f       	mul	r27, r18
     d02:	90 0d       	add	r25, r0
     d04:	11 24       	eor	r1, r1
     d06:	e8 0f       	add	r30, r24
     d08:	f9 1f       	adc	r31, r25
     d0a:	47 8f       	std	Z+31, r20	; 0x1f
     d0c:	50 a3       	std	Z+32, r21	; 0x20
     d0e:	61 a3       	std	Z+33, r22	; 0x21
     d10:	72 a3       	std	Z+34, r23	; 0x22
}
     d12:	08 95       	ret

00000d14 <Timebase_UpCounter_Get_TemporaryValue>:

uint32_t Timebase_UpCounter_Get_TemporaryValue(uint8_t window){
     d14:	e0 91 41 01 	lds	r30, 0x0141
     d18:	f0 91 42 01 	lds	r31, 0x0142
     d1c:	90 e0       	ldi	r25, 0x00	; 0
     d1e:	25 e1       	ldi	r18, 0x15	; 21
     d20:	30 e0       	ldi	r19, 0x00	; 0
     d22:	ac 01       	movw	r20, r24
     d24:	42 9f       	mul	r20, r18
     d26:	c0 01       	movw	r24, r0
     d28:	43 9f       	mul	r20, r19
     d2a:	90 0d       	add	r25, r0
     d2c:	52 9f       	mul	r21, r18
     d2e:	90 0d       	add	r25, r0
     d30:	11 24       	eor	r1, r1
     d32:	e8 0f       	add	r30, r24
     d34:	f9 1f       	adc	r31, r25
     d36:	df 01       	movw	r26, r30
     d38:	93 96       	adiw	r26, 0x23	; 35
     d3a:	63 a1       	ldd	r22, Z+35	; 0x23
     d3c:	11 96       	adiw	r26, 0x01	; 1
     d3e:	7c 91       	ld	r23, X
     d40:	11 97       	sbiw	r26, 0x01	; 1
  return (uint32_t)Timebase->UpCounter[window].Temporary;
}
     d42:	12 96       	adiw	r26, 0x02	; 2
     d44:	8c 91       	ld	r24, X
     d46:	12 97       	sbiw	r26, 0x02	; 2
     d48:	13 96       	adiw	r26, 0x03	; 3
     d4a:	9c 91       	ld	r25, X
     d4c:	08 95       	ret

00000d4e <Timebase_UpCounter_Set_TemporaryValue>:

void Timebase_UpCounter_Set_TemporaryValue(uint8_t window, uint32_t value){
  Timebase->UpCounter[window].Temporary = value;
     d4e:	e0 91 41 01 	lds	r30, 0x0141
     d52:	f0 91 42 01 	lds	r31, 0x0142
     d56:	90 e0       	ldi	r25, 0x00	; 0
     d58:	25 e1       	ldi	r18, 0x15	; 21
     d5a:	30 e0       	ldi	r19, 0x00	; 0
     d5c:	dc 01       	movw	r26, r24
     d5e:	a2 9f       	mul	r26, r18
     d60:	c0 01       	movw	r24, r0
     d62:	a3 9f       	mul	r26, r19
     d64:	90 0d       	add	r25, r0
     d66:	b2 9f       	mul	r27, r18
     d68:	90 0d       	add	r25, r0
     d6a:	11 24       	eor	r1, r1
     d6c:	e8 0f       	add	r30, r24
     d6e:	f9 1f       	adc	r31, r25
     d70:	43 a3       	std	Z+35, r20	; 0x23
     d72:	54 a3       	std	Z+36, r21	; 0x24
     d74:	65 a3       	std	Z+37, r22	; 0x25
     d76:	76 a3       	std	Z+38, r23	; 0x26
}
     d78:	08 95       	ret

00000d7a <Timebase_UpCounter_Get_PeriodValue>:

uint32_t Timebase_UpCounter_Get_PeriodValue(uint8_t window){
     d7a:	e0 91 41 01 	lds	r30, 0x0141
     d7e:	f0 91 42 01 	lds	r31, 0x0142
     d82:	90 e0       	ldi	r25, 0x00	; 0
     d84:	25 e1       	ldi	r18, 0x15	; 21
     d86:	30 e0       	ldi	r19, 0x00	; 0
     d88:	ac 01       	movw	r20, r24
     d8a:	42 9f       	mul	r20, r18
     d8c:	c0 01       	movw	r24, r0
     d8e:	43 9f       	mul	r20, r19
     d90:	90 0d       	add	r25, r0
     d92:	52 9f       	mul	r21, r18
     d94:	90 0d       	add	r25, r0
     d96:	11 24       	eor	r1, r1
     d98:	e8 0f       	add	r30, r24
     d9a:	f9 1f       	adc	r31, r25
     d9c:	df 01       	movw	r26, r30
     d9e:	9b 96       	adiw	r26, 0x2b	; 43
     da0:	63 a5       	ldd	r22, Z+43	; 0x2b
     da2:	11 96       	adiw	r26, 0x01	; 1
     da4:	7c 91       	ld	r23, X
     da6:	11 97       	sbiw	r26, 0x01	; 1
  return (uint32_t)Timebase->UpCounter[window].PeriodValue;
}
     da8:	12 96       	adiw	r26, 0x02	; 2
     daa:	8c 91       	ld	r24, X
     dac:	12 97       	sbiw	r26, 0x02	; 2
     dae:	13 96       	adiw	r26, 0x03	; 3
     db0:	9c 91       	ld	r25, X
     db2:	08 95       	ret

00000db4 <Timebase_UpCounter_Set_PeriodValue>:

void Timebase_UpCounter_Set_PeriodValue(uint8_t window, uint32_t value){
  Timebase->UpCounter[window].PeriodValue = value;
     db4:	e0 91 41 01 	lds	r30, 0x0141
     db8:	f0 91 42 01 	lds	r31, 0x0142
     dbc:	90 e0       	ldi	r25, 0x00	; 0
     dbe:	25 e1       	ldi	r18, 0x15	; 21
     dc0:	30 e0       	ldi	r19, 0x00	; 0
     dc2:	dc 01       	movw	r26, r24
     dc4:	a2 9f       	mul	r26, r18
     dc6:	c0 01       	movw	r24, r0
     dc8:	a3 9f       	mul	r26, r19
     dca:	90 0d       	add	r25, r0
     dcc:	b2 9f       	mul	r27, r18
     dce:	90 0d       	add	r25, r0
     dd0:	11 24       	eor	r1, r1
     dd2:	e8 0f       	add	r30, r24
     dd4:	f9 1f       	adc	r31, r25
     dd6:	43 a7       	std	Z+43, r20	; 0x2b
     dd8:	54 a7       	std	Z+44, r21	; 0x2c
     dda:	65 a7       	std	Z+45, r22	; 0x2d
     ddc:	76 a7       	std	Z+46, r23	; 0x2e
}
     dde:	08 95       	ret

00000de0 <Timebase_UpCounter_Get_Period_Flag>:

uint8_t Timebase_UpCounter_Get_Period_Flag(uint8_t window){
     de0:	e0 91 41 01 	lds	r30, 0x0141
     de4:	f0 91 42 01 	lds	r31, 0x0142
     de8:	90 e0       	ldi	r25, 0x00	; 0
     dea:	25 e1       	ldi	r18, 0x15	; 21
     dec:	30 e0       	ldi	r19, 0x00	; 0
     dee:	ac 01       	movw	r20, r24
     df0:	42 9f       	mul	r20, r18
     df2:	c0 01       	movw	r24, r0
     df4:	43 9f       	mul	r20, r19
     df6:	90 0d       	add	r25, r0
     df8:	52 9f       	mul	r21, r18
     dfa:	90 0d       	add	r25, r0
     dfc:	11 24       	eor	r1, r1
     dfe:	e8 0f       	add	r30, r24
     e00:	f9 1f       	adc	r31, r25
     e02:	82 8d       	ldd	r24, Z+26	; 0x1a
  return Timebase->UpCounter[window].Status.PeriodFlag;
}
     e04:	81 70       	andi	r24, 0x01	; 1
     e06:	08 95       	ret

00000e08 <Timebase_UpCounter_Set_Period_Flag>:

void Timebase_UpCounter_Set_Period_Flag(uint8_t window){
  Timebase->UpCounter[window].Status.PeriodFlag = 1;
     e08:	e0 91 41 01 	lds	r30, 0x0141
     e0c:	f0 91 42 01 	lds	r31, 0x0142
     e10:	90 e0       	ldi	r25, 0x00	; 0
     e12:	25 e1       	ldi	r18, 0x15	; 21
     e14:	30 e0       	ldi	r19, 0x00	; 0
     e16:	ac 01       	movw	r20, r24
     e18:	42 9f       	mul	r20, r18
     e1a:	c0 01       	movw	r24, r0
     e1c:	43 9f       	mul	r20, r19
     e1e:	90 0d       	add	r25, r0
     e20:	52 9f       	mul	r21, r18
     e22:	90 0d       	add	r25, r0
     e24:	11 24       	eor	r1, r1
     e26:	e8 0f       	add	r30, r24
     e28:	f9 1f       	adc	r31, r25
     e2a:	82 8d       	ldd	r24, Z+26	; 0x1a
     e2c:	81 60       	ori	r24, 0x01	; 1
     e2e:	82 8f       	std	Z+26, r24	; 0x1a
}
     e30:	08 95       	ret

00000e32 <Timebase_UpCounter_Clear_Period_Flag>:

void Timebase_UpCounter_Clear_Period_Flag(uint8_t window){
  Timebase->UpCounter[window].Status.PeriodFlag = 0;
     e32:	e0 91 41 01 	lds	r30, 0x0141
     e36:	f0 91 42 01 	lds	r31, 0x0142
     e3a:	90 e0       	ldi	r25, 0x00	; 0
     e3c:	25 e1       	ldi	r18, 0x15	; 21
     e3e:	30 e0       	ldi	r19, 0x00	; 0
     e40:	ac 01       	movw	r20, r24
     e42:	42 9f       	mul	r20, r18
     e44:	c0 01       	movw	r24, r0
     e46:	43 9f       	mul	r20, r19
     e48:	90 0d       	add	r25, r0
     e4a:	52 9f       	mul	r21, r18
     e4c:	90 0d       	add	r25, r0
     e4e:	11 24       	eor	r1, r1
     e50:	e8 0f       	add	r30, r24
     e52:	f9 1f       	adc	r31, r25
     e54:	82 8d       	ldd	r24, Z+26	; 0x1a
     e56:	8e 7f       	andi	r24, 0xFE	; 254
     e58:	82 8f       	std	Z+26, r24	; 0x1a
}
     e5a:	08 95       	ret

00000e5c <Timebase_UpCounter_Reset>:
uint8_t Timebase_UpCounter_Get_Status(uint8_t window){
  return Timebase->UpCounter[window].Status.Value;
}

void Timebase_UpCounter_Set_Status(uint8_t window, uint8_t value){
  Timebase->UpCounter[window].Status.Value = value;
     e5c:	e0 91 41 01 	lds	r30, 0x0141
     e60:	f0 91 42 01 	lds	r31, 0x0142
     e64:	90 e0       	ldi	r25, 0x00	; 0
     e66:	25 e1       	ldi	r18, 0x15	; 21
     e68:	30 e0       	ldi	r19, 0x00	; 0
     e6a:	ac 01       	movw	r20, r24
     e6c:	42 9f       	mul	r20, r18
     e6e:	c0 01       	movw	r24, r0
     e70:	43 9f       	mul	r20, r19
     e72:	90 0d       	add	r25, r0
     e74:	52 9f       	mul	r21, r18
     e76:	90 0d       	add	r25, r0
     e78:	11 24       	eor	r1, r1
     e7a:	e8 0f       	add	r30, r24
     e7c:	f9 1f       	adc	r31, r25
     e7e:	82 8d       	ldd	r24, Z+26	; 0x1a
uint32_t Timebase_UpCounter_Get_Value(uint8_t window){
  return (uint32_t)Timebase->UpCounter[window].Value;
}

void Timebase_UpCounter_Set_Value(uint8_t window, uint32_t value){
  Timebase->UpCounter[window].Value = value;
     e80:	17 a2       	std	Z+39, r1	; 0x27
     e82:	10 a6       	std	Z+40, r1	; 0x28
     e84:	11 a6       	std	Z+41, r1	; 0x29
     e86:	12 a6       	std	Z+42, r1	; 0x2a
uint32_t Timebase_UpCounter_Get_EndValue(uint8_t window){
  return (uint32_t)Timebase->UpCounter[window].EndValue;
}

void Timebase_UpCounter_Set_EndValue(uint8_t window, uint32_t value){
  Timebase->UpCounter[window].EndValue = value;
     e88:	13 8e       	std	Z+27, r1	; 0x1b
     e8a:	14 8e       	std	Z+28, r1	; 0x1c
     e8c:	15 8e       	std	Z+29, r1	; 0x1d
     e8e:	16 8e       	std	Z+30, r1	; 0x1e
uint32_t Timebase_UpCounter_Get_TargetValue(uint8_t window){
  return (uint32_t)Timebase->UpCounter[window].Target;
}

void Timebase_UpCounter_Set_TargetValue(uint8_t window, uint32_t value){
  Timebase->UpCounter[window].Target = value;
     e90:	17 8e       	std	Z+31, r1	; 0x1f
     e92:	10 a2       	std	Z+32, r1	; 0x20
     e94:	11 a2       	std	Z+33, r1	; 0x21
     e96:	12 a2       	std	Z+34, r1	; 0x22
uint32_t Timebase_UpCounter_Get_TemporaryValue(uint8_t window){
  return (uint32_t)Timebase->UpCounter[window].Temporary;
}

void Timebase_UpCounter_Set_TemporaryValue(uint8_t window, uint32_t value){
  Timebase->UpCounter[window].Temporary = value;
     e98:	13 a2       	std	Z+35, r1	; 0x23
     e9a:	14 a2       	std	Z+36, r1	; 0x24
     e9c:	15 a2       	std	Z+37, r1	; 0x25
     e9e:	16 a2       	std	Z+38, r1	; 0x26
uint32_t Timebase_UpCounter_Get_PeriodValue(uint8_t window){
  return (uint32_t)Timebase->UpCounter[window].PeriodValue;
}

void Timebase_UpCounter_Set_PeriodValue(uint8_t window, uint32_t value){
  Timebase->UpCounter[window].PeriodValue = value;
     ea0:	13 a6       	std	Z+43, r1	; 0x2b
     ea2:	14 a6       	std	Z+44, r1	; 0x2c
     ea4:	15 a6       	std	Z+45, r1	; 0x2d
     ea6:	16 a6       	std	Z+46, r1	; 0x2e
void Timebase_UpCounter_Set_Period_Flag(uint8_t window){
  Timebase->UpCounter[window].Status.PeriodFlag = 1;
}

void Timebase_UpCounter_Clear_Period_Flag(uint8_t window){
  Timebase->UpCounter[window].Status.PeriodFlag = 0;
     ea8:	80 7e       	andi	r24, 0xE0	; 224
     eaa:	82 8f       	std	Z+26, r24	; 0x1a
  Timebase_UpCounter_Set_EndValue(window, 0);
  Timebase_UpCounter_Set_TargetValue(window, 0);
  Timebase_UpCounter_Set_TemporaryValue(window, 0);
  Timebase_UpCounter_Set_PeriodValue(window, 0);
  Timebase_UpCounter_Clear_Period_Flag(window);
} 
     eac:	08 95       	ret

00000eae <Timebase_UpCounter_Clear_All_Flags>:

void Timebase_UpCounter_Clear_All_Flags(uint8_t window){
  Timebase_UpCounter_Reset( window );
     eae:	0e 94 2e 07 	call	0xe5c	; 0xe5c <Timebase_UpCounter_Reset>
}
     eb2:	08 95       	ret

00000eb4 <Timebase_UpCounter_Start>:


//UpCounter Functions
#ifdef TIMEBASE_UPCOUNTER
uint8_t Timebase_UpCounter_Get_Status(uint8_t window){
  return Timebase->UpCounter[window].Status.Value;
     eb4:	e0 91 41 01 	lds	r30, 0x0141
     eb8:	f0 91 42 01 	lds	r31, 0x0142
     ebc:	90 e0       	ldi	r25, 0x00	; 0
void Timebase_UpCounter_Clear_All_Flags(uint8_t window){
  Timebase_UpCounter_Reset( window );
}

void Timebase_UpCounter_Start(uint8_t window){
  if(Timebase_UpCounter_Get_Status(window) != 1){
     ebe:	25 e1       	ldi	r18, 0x15	; 21
     ec0:	30 e0       	ldi	r19, 0x00	; 0
     ec2:	ac 01       	movw	r20, r24
     ec4:	42 9f       	mul	r20, r18
     ec6:	c0 01       	movw	r24, r0
     ec8:	43 9f       	mul	r20, r19
     eca:	90 0d       	add	r25, r0
     ecc:	52 9f       	mul	r21, r18
     ece:	90 0d       	add	r25, r0
     ed0:	11 24       	eor	r1, r1
     ed2:	e8 0f       	add	r30, r24
     ed4:	f9 1f       	adc	r31, r25
     ed6:	92 8d       	ldd	r25, Z+26	; 0x1a
     ed8:	89 2f       	mov	r24, r25
     eda:	86 95       	lsr	r24
     edc:	8f 70       	andi	r24, 0x0F	; 15
     ede:	81 30       	cpi	r24, 0x01	; 1
     ee0:	19 f0       	breq	.+6      	; 0xee8 <Timebase_UpCounter_Start+0x34>
uint8_t Timebase_UpCounter_Get_Status(uint8_t window){
  return Timebase->UpCounter[window].Status.Value;
}

void Timebase_UpCounter_Set_Status(uint8_t window, uint8_t value){
  Timebase->UpCounter[window].Status.Value = value;
     ee2:	91 7e       	andi	r25, 0xE1	; 225
     ee4:	92 60       	ori	r25, 0x02	; 2
     ee6:	92 8f       	std	Z+26, r25	; 0x1a
     ee8:	08 95       	ret

00000eea <Timebase_UpCounter_Stop>:


//UpCounter Functions
#ifdef TIMEBASE_UPCOUNTER
uint8_t Timebase_UpCounter_Get_Status(uint8_t window){
  return Timebase->UpCounter[window].Status.Value;
     eea:	e0 91 41 01 	lds	r30, 0x0141
     eee:	f0 91 42 01 	lds	r31, 0x0142
     ef2:	90 e0       	ldi	r25, 0x00	; 0
    Timebase_UpCounter_Set_Status(window , 1);    
  }
}

void Timebase_UpCounter_Stop(uint8_t window){
  if(Timebase_UpCounter_Get_Status(window) != 2){
     ef4:	25 e1       	ldi	r18, 0x15	; 21
     ef6:	30 e0       	ldi	r19, 0x00	; 0
     ef8:	ac 01       	movw	r20, r24
     efa:	42 9f       	mul	r20, r18
     efc:	c0 01       	movw	r24, r0
     efe:	43 9f       	mul	r20, r19
     f00:	90 0d       	add	r25, r0
     f02:	52 9f       	mul	r21, r18
     f04:	90 0d       	add	r25, r0
     f06:	11 24       	eor	r1, r1
     f08:	e8 0f       	add	r30, r24
     f0a:	f9 1f       	adc	r31, r25
     f0c:	92 8d       	ldd	r25, Z+26	; 0x1a
     f0e:	89 2f       	mov	r24, r25
     f10:	86 95       	lsr	r24
     f12:	8f 70       	andi	r24, 0x0F	; 15
     f14:	82 30       	cpi	r24, 0x02	; 2
     f16:	19 f0       	breq	.+6      	; 0xf1e <Timebase_UpCounter_Stop+0x34>
uint8_t Timebase_UpCounter_Get_Status(uint8_t window){
  return Timebase->UpCounter[window].Status.Value;
}

void Timebase_UpCounter_Set_Status(uint8_t window, uint8_t value){
  Timebase->UpCounter[window].Status.Value = value;
     f18:	91 7e       	andi	r25, 0xE1	; 225
     f1a:	94 60       	ori	r25, 0x04	; 4
     f1c:	92 8f       	std	Z+26, r25	; 0x1a
     f1e:	08 95       	ret

00000f20 <Timebase_UpCounter_Set_Securely>:


//UpCounter Functions
#ifdef TIMEBASE_UPCOUNTER
uint8_t Timebase_UpCounter_Get_Status(uint8_t window){
  return Timebase->UpCounter[window].Status.Value;
     f20:	a0 91 41 01 	lds	r26, 0x0141
     f24:	b0 91 42 01 	lds	r27, 0x0142
     f28:	90 e0       	ldi	r25, 0x00	; 0
  }
}


void Timebase_UpCounter_Set_Securely(uint8_t window, uint32_t value){
  if( Timebase_UpCounter_Get_Status( window ) == 0 ){
     f2a:	25 e1       	ldi	r18, 0x15	; 21
     f2c:	30 e0       	ldi	r19, 0x00	; 0
     f2e:	82 9f       	mul	r24, r18
     f30:	f0 01       	movw	r30, r0
     f32:	83 9f       	mul	r24, r19
     f34:	f0 0d       	add	r31, r0
     f36:	92 9f       	mul	r25, r18
     f38:	f0 0d       	add	r31, r0
     f3a:	11 24       	eor	r1, r1
     f3c:	ea 0f       	add	r30, r26
     f3e:	fb 1f       	adc	r31, r27
     f40:	82 8d       	ldd	r24, Z+26	; 0x1a
     f42:	86 95       	lsr	r24
     f44:	8f 70       	andi	r24, 0x0F	; 15
     f46:	19 f5       	brne	.+70     	; 0xf8e <Timebase_UpCounter_Set_Securely+0x6e>
uint32_t Timebase_UpCounter_Get_Value(uint8_t window){
  return (uint32_t)Timebase->UpCounter[window].Value;
}

void Timebase_UpCounter_Set_Value(uint8_t window, uint32_t value){
  Timebase->UpCounter[window].Value = value;
     f48:	17 a2       	std	Z+39, r1	; 0x27
     f4a:	10 a6       	std	Z+40, r1	; 0x28
     f4c:	11 a6       	std	Z+41, r1	; 0x29
     f4e:	12 a6       	std	Z+42, r1	; 0x2a
uint32_t Timebase_UpCounter_Get_TemporaryValue(uint8_t window){
  return (uint32_t)Timebase->UpCounter[window].Temporary;
}

void Timebase_UpCounter_Set_TemporaryValue(uint8_t window, uint32_t value){
  Timebase->UpCounter[window].Temporary = value;
     f50:	13 a2       	std	Z+35, r1	; 0x23
     f52:	14 a2       	std	Z+36, r1	; 0x24
     f54:	15 a2       	std	Z+37, r1	; 0x25
     f56:	16 a2       	std	Z+38, r1	; 0x26
uint32_t Timebase_UpCounter_Get_TargetValue(uint8_t window){
  return (uint32_t)Timebase->UpCounter[window].Target;
}

void Timebase_UpCounter_Set_TargetValue(uint8_t window, uint32_t value){
  Timebase->UpCounter[window].Target = value;
     f58:	47 8f       	std	Z+31, r20	; 0x1f
     f5a:	50 a3       	std	Z+32, r21	; 0x20
     f5c:	61 a3       	std	Z+33, r22	; 0x21
     f5e:	72 a3       	std	Z+34, r23	; 0x22
uint32_t Timebase_Timer_Get_SubSeconds(void){
  return Timebase->Time.SubSeconds;
}

uint32_t Timebase_Timer_Get_Seconds(void){
  return Timebase->Time.Seconds;
     f60:	1c 96       	adiw	r26, 0x0c	; 12
     f62:	8d 91       	ld	r24, X+
     f64:	9d 91       	ld	r25, X+
     f66:	0d 90       	ld	r0, X+
     f68:	bc 91       	ld	r27, X
     f6a:	a0 2d       	mov	r26, r0
uint32_t Timebase_UpCounter_Get_EndValue(uint8_t window){
  return (uint32_t)Timebase->UpCounter[window].EndValue;
}

void Timebase_UpCounter_Set_EndValue(uint8_t window, uint32_t value){
  Timebase->UpCounter[window].EndValue = value;
     f6c:	84 0f       	add	r24, r20
     f6e:	95 1f       	adc	r25, r21
     f70:	a6 1f       	adc	r26, r22
     f72:	b7 1f       	adc	r27, r23
     f74:	83 8f       	std	Z+27, r24	; 0x1b
     f76:	94 8f       	std	Z+28, r25	; 0x1c
     f78:	a5 8f       	std	Z+29, r26	; 0x1d
     f7a:	b6 8f       	std	Z+30, r27	; 0x1e
void Timebase_UpCounter_Clear_All_Flags(uint8_t window){
  Timebase_UpCounter_Reset( window );
}

void Timebase_UpCounter_Start(uint8_t window){
  if(Timebase_UpCounter_Get_Status(window) != 1){
     f7c:	92 8d       	ldd	r25, Z+26	; 0x1a
     f7e:	89 2f       	mov	r24, r25
     f80:	86 95       	lsr	r24
     f82:	8f 70       	andi	r24, 0x0F	; 15
     f84:	81 30       	cpi	r24, 0x01	; 1
     f86:	19 f0       	breq	.+6      	; 0xf8e <Timebase_UpCounter_Set_Securely+0x6e>
uint8_t Timebase_UpCounter_Get_Status(uint8_t window){
  return Timebase->UpCounter[window].Status.Value;
}

void Timebase_UpCounter_Set_Status(uint8_t window, uint8_t value){
  Timebase->UpCounter[window].Status.Value = value;
     f88:	91 7e       	andi	r25, 0xE1	; 225
     f8a:	92 60       	ori	r25, 0x02	; 2
     f8c:	92 8f       	std	Z+26, r25	; 0x1a
     f8e:	08 95       	ret

00000f90 <Timebase_UpCounter_Set_Forcefully>:
    Timebase_UpCounter_Set_EndValue(window, Timebase_Timer_Get_Seconds() + value);  
    Timebase_UpCounter_Start(window);
  }
}

void Timebase_UpCounter_Set_Forcefully(uint8_t window, uint32_t value){
     f90:	df 92       	push	r13
     f92:	ef 92       	push	r14
     f94:	ff 92       	push	r15
     f96:	0f 93       	push	r16
     f98:	1f 93       	push	r17
     f9a:	d8 2e       	mov	r13, r24
     f9c:	7a 01       	movw	r14, r20
     f9e:	8b 01       	movw	r16, r22
  Timebase_UpCounter_Reset( window );
     fa0:	0e 94 2e 07 	call	0xe5c	; 0xe5c <Timebase_UpCounter_Reset>
  Timebase_UpCounter_Set_Securely( window, value );
     fa4:	8d 2d       	mov	r24, r13
     fa6:	b8 01       	movw	r22, r16
     fa8:	a7 01       	movw	r20, r14
     faa:	0e 94 90 07 	call	0xf20	; 0xf20 <Timebase_UpCounter_Set_Securely>
} 
     fae:	1f 91       	pop	r17
     fb0:	0f 91       	pop	r16
     fb2:	ff 90       	pop	r15
     fb4:	ef 90       	pop	r14
     fb6:	df 90       	pop	r13
     fb8:	08 95       	ret

00000fba <Timebase_UpCounter_Update>:

void Timebase_UpCounter_Update(uint8_t window){
     fba:	ef 92       	push	r14
     fbc:	ff 92       	push	r15
     fbe:	0f 93       	push	r16
     fc0:	1f 93       	push	r17


//UpCounter Functions
#ifdef TIMEBASE_UPCOUNTER
uint8_t Timebase_UpCounter_Get_Status(uint8_t window){
  return Timebase->UpCounter[window].Status.Value;
     fc2:	a0 91 41 01 	lds	r26, 0x0141
     fc6:	b0 91 42 01 	lds	r27, 0x0142
     fca:	90 e0       	ldi	r25, 0x00	; 0
     fcc:	25 e1       	ldi	r18, 0x15	; 21
     fce:	30 e0       	ldi	r19, 0x00	; 0
     fd0:	82 9f       	mul	r24, r18
     fd2:	f0 01       	movw	r30, r0
     fd4:	83 9f       	mul	r24, r19
     fd6:	f0 0d       	add	r31, r0
     fd8:	92 9f       	mul	r25, r18
     fda:	f0 0d       	add	r31, r0
     fdc:	11 24       	eor	r1, r1
     fde:	ea 0f       	add	r30, r26
     fe0:	fb 1f       	adc	r31, r27
     fe2:	82 8d       	ldd	r24, Z+26	; 0x1a
     fe4:	86 95       	lsr	r24
     fe6:	8f 70       	andi	r24, 0x0F	; 15
  Timebase_UpCounter_Reset( window );
  Timebase_UpCounter_Set_Securely( window, value );
} 

void Timebase_UpCounter_Update(uint8_t window){
  if( Timebase_UpCounter_Get_Status( window ) == 1 ){ 
     fe8:	81 30       	cpi	r24, 0x01	; 1
     fea:	b1 f5       	brne	.+108    	; 0x1058 <Timebase_UpCounter_Update+0x9e>
uint32_t Timebase_Timer_Get_SubSeconds(void){
  return Timebase->Time.SubSeconds;
}

uint32_t Timebase_Timer_Get_Seconds(void){
  return Timebase->Time.Seconds;
     fec:	1c 96       	adiw	r26, 0x0c	; 12
     fee:	8d 91       	ld	r24, X+
     ff0:	9d 91       	ld	r25, X+
     ff2:	0d 90       	ld	r0, X+
     ff4:	bc 91       	ld	r27, X
     ff6:	a0 2d       	mov	r26, r0
  Timebase_UpCounter_Set_Securely( window, value );
} 

void Timebase_UpCounter_Update(uint8_t window){
  if( Timebase_UpCounter_Get_Status( window ) == 1 ){ 
    Timebase_UpCounter_Set_TemporaryValue(window, Timebase_UpCounter_Get_EndValue(window) - Timebase_Timer_Get_Seconds() );
     ff8:	23 8d       	ldd	r18, Z+27	; 0x1b
     ffa:	34 8d       	ldd	r19, Z+28	; 0x1c
     ffc:	45 8d       	ldd	r20, Z+29	; 0x1d
     ffe:	56 8d       	ldd	r21, Z+30	; 0x1e
    1000:	28 1b       	sub	r18, r24
    1002:	39 0b       	sbc	r19, r25
    1004:	4a 0b       	sbc	r20, r26
    1006:	5b 0b       	sbc	r21, r27
uint32_t Timebase_UpCounter_Get_TemporaryValue(uint8_t window){
  return (uint32_t)Timebase->UpCounter[window].Temporary;
}

void Timebase_UpCounter_Set_TemporaryValue(uint8_t window, uint32_t value){
  Timebase->UpCounter[window].Temporary = value;
    1008:	23 a3       	std	Z+35, r18	; 0x23
    100a:	34 a3       	std	Z+36, r19	; 0x24
    100c:	45 a3       	std	Z+37, r20	; 0x25
    100e:	56 a3       	std	Z+38, r21	; 0x26
uint32_t Timebase_UpCounter_Get_Value(uint8_t window){
  return (uint32_t)Timebase->UpCounter[window].Value;
}

void Timebase_UpCounter_Set_Value(uint8_t window, uint32_t value){
  Timebase->UpCounter[window].Value = value;
    1010:	e7 8c       	ldd	r14, Z+31	; 0x1f
    1012:	f0 a0       	ldd	r15, Z+32	; 0x20
    1014:	01 a1       	ldd	r16, Z+33	; 0x21
    1016:	12 a1       	ldd	r17, Z+34	; 0x22
    1018:	d8 01       	movw	r26, r16
    101a:	c7 01       	movw	r24, r14
    101c:	82 1b       	sub	r24, r18
    101e:	93 0b       	sbc	r25, r19
    1020:	a4 0b       	sbc	r26, r20
    1022:	b5 0b       	sbc	r27, r21
    1024:	87 a3       	std	Z+39, r24	; 0x27
    1026:	90 a7       	std	Z+40, r25	; 0x28
    1028:	a1 a7       	std	Z+41, r26	; 0x29
    102a:	b2 a7       	std	Z+42, r27	; 0x2a

void Timebase_UpCounter_Update(uint8_t window){
  if( Timebase_UpCounter_Get_Status( window ) == 1 ){ 
    Timebase_UpCounter_Set_TemporaryValue(window, Timebase_UpCounter_Get_EndValue(window) - Timebase_Timer_Get_Seconds() );
    Timebase_UpCounter_Set_Value(window, Timebase_UpCounter_Get_TargetValue(window) - Timebase_UpCounter_Get_TemporaryValue(window) );
    if(Timebase_UpCounter_Get_TemporaryValue(window) <= 0){
    102c:	21 15       	cp	r18, r1
    102e:	31 05       	cpc	r19, r1
    1030:	41 05       	cpc	r20, r1
    1032:	51 05       	cpc	r21, r1
    1034:	89 f5       	brne	.+98     	; 0x1098 <Timebase_UpCounter_Update+0xde>
uint32_t Timebase_UpCounter_Get_EndValue(uint8_t window){
  return (uint32_t)Timebase->UpCounter[window].EndValue;
}

void Timebase_UpCounter_Set_EndValue(uint8_t window, uint32_t value){
  Timebase->UpCounter[window].EndValue = value;
    1036:	13 8e       	std	Z+27, r1	; 0x1b
    1038:	14 8e       	std	Z+28, r1	; 0x1c
    103a:	15 8e       	std	Z+29, r1	; 0x1d
    103c:	16 8e       	std	Z+30, r1	; 0x1e
uint32_t Timebase_UpCounter_Get_TemporaryValue(uint8_t window){
  return (uint32_t)Timebase->UpCounter[window].Temporary;
}

void Timebase_UpCounter_Set_TemporaryValue(uint8_t window, uint32_t value){
  Timebase->UpCounter[window].Temporary = value;
    103e:	13 a2       	std	Z+35, r1	; 0x23
    1040:	14 a2       	std	Z+36, r1	; 0x24
    1042:	15 a2       	std	Z+37, r1	; 0x25
    1044:	16 a2       	std	Z+38, r1	; 0x26
uint32_t Timebase_UpCounter_Get_Value(uint8_t window){
  return (uint32_t)Timebase->UpCounter[window].Value;
}

void Timebase_UpCounter_Set_Value(uint8_t window, uint32_t value){
  Timebase->UpCounter[window].Value = value;
    1046:	e7 a2       	std	Z+39, r14	; 0x27
    1048:	f0 a6       	std	Z+40, r15	; 0x28
    104a:	01 a7       	std	Z+41, r16	; 0x29
    104c:	12 a7       	std	Z+42, r17	; 0x2a
uint8_t Timebase_UpCounter_Get_Status(uint8_t window){
  return Timebase->UpCounter[window].Status.Value;
}

void Timebase_UpCounter_Set_Status(uint8_t window, uint8_t value){
  Timebase->UpCounter[window].Status.Value = value;
    104e:	82 8d       	ldd	r24, Z+26	; 0x1a
    1050:	81 7e       	andi	r24, 0xE1	; 225
    1052:	88 60       	ori	r24, 0x08	; 8
    1054:	82 8f       	std	Z+26, r24	; 0x1a
    1056:	20 c0       	rjmp	.+64     	; 0x1098 <Timebase_UpCounter_Update+0xde>
      Timebase_UpCounter_Set_EndValue(window, 0);
      Timebase_UpCounter_Set_TemporaryValue(window, 0);
      Timebase_UpCounter_Set_Value(window, Timebase_UpCounter_Get_TargetValue(window));
      Timebase_UpCounter_Set_Status(window, 4);
    }
  } else if (Timebase_UpCounter_Get_Status( window ) == 2){
    1058:	82 30       	cpi	r24, 0x02	; 2
    105a:	f1 f4       	brne	.+60     	; 0x1098 <Timebase_UpCounter_Update+0xde>
uint32_t Timebase_Timer_Get_SubSeconds(void){
  return Timebase->Time.SubSeconds;
}

uint32_t Timebase_Timer_Get_Seconds(void){
  return Timebase->Time.Seconds;
    105c:	1c 96       	adiw	r26, 0x0c	; 12
    105e:	8d 91       	ld	r24, X+
    1060:	9d 91       	ld	r25, X+
    1062:	0d 90       	ld	r0, X+
    1064:	bc 91       	ld	r27, X
    1066:	a0 2d       	mov	r26, r0
uint32_t Timebase_UpCounter_Get_EndValue(uint8_t window){
  return (uint32_t)Timebase->UpCounter[window].EndValue;
}

void Timebase_UpCounter_Set_EndValue(uint8_t window, uint32_t value){
  Timebase->UpCounter[window].EndValue = value;
    1068:	23 a1       	ldd	r18, Z+35	; 0x23
    106a:	34 a1       	ldd	r19, Z+36	; 0x24
    106c:	45 a1       	ldd	r20, Z+37	; 0x25
    106e:	56 a1       	ldd	r21, Z+38	; 0x26
    1070:	82 0f       	add	r24, r18
    1072:	93 1f       	adc	r25, r19
    1074:	a4 1f       	adc	r26, r20
    1076:	b5 1f       	adc	r27, r21
    1078:	83 8f       	std	Z+27, r24	; 0x1b
    107a:	94 8f       	std	Z+28, r25	; 0x1c
    107c:	a5 8f       	std	Z+29, r26	; 0x1d
    107e:	b6 8f       	std	Z+30, r27	; 0x1e
uint32_t Timebase_UpCounter_Get_Value(uint8_t window){
  return (uint32_t)Timebase->UpCounter[window].Value;
}

void Timebase_UpCounter_Set_Value(uint8_t window, uint32_t value){
  Timebase->UpCounter[window].Value = value;
    1080:	87 8d       	ldd	r24, Z+31	; 0x1f
    1082:	90 a1       	ldd	r25, Z+32	; 0x20
    1084:	a1 a1       	ldd	r26, Z+33	; 0x21
    1086:	b2 a1       	ldd	r27, Z+34	; 0x22
    1088:	82 1b       	sub	r24, r18
    108a:	93 0b       	sbc	r25, r19
    108c:	a4 0b       	sbc	r26, r20
    108e:	b5 0b       	sbc	r27, r21
    1090:	87 a3       	std	Z+39, r24	; 0x27
    1092:	90 a7       	std	Z+40, r25	; 0x28
    1094:	a1 a7       	std	Z+41, r26	; 0x29
    1096:	b2 a7       	std	Z+42, r27	; 0x2a
    }
  } else if (Timebase_UpCounter_Get_Status( window ) == 2){
    Timebase_UpCounter_Set_EndValue(window, Timebase_UpCounter_Get_TemporaryValue(window) + Timebase_Timer_Get_Seconds());
    Timebase_UpCounter_Set_Value(window, Timebase_UpCounter_Get_TargetValue(window) - Timebase_UpCounter_Get_TemporaryValue(window));
  }
}
    1098:	1f 91       	pop	r17
    109a:	0f 91       	pop	r16
    109c:	ff 90       	pop	r15
    109e:	ef 90       	pop	r14
    10a0:	08 95       	ret

000010a2 <Timebase_UpCounter_Expired>:


uint8_t Timebase_UpCounter_Expired(uint8_t window){
    10a2:	40 e0       	ldi	r20, 0x00	; 0
    10a4:	e0 91 41 01 	lds	r30, 0x0141
    10a8:	f0 91 42 01 	lds	r31, 0x0142
    10ac:	90 e0       	ldi	r25, 0x00	; 0
    10ae:	25 e1       	ldi	r18, 0x15	; 21
    10b0:	30 e0       	ldi	r19, 0x00	; 0
    10b2:	bc 01       	movw	r22, r24
    10b4:	62 9f       	mul	r22, r18
    10b6:	c0 01       	movw	r24, r0
    10b8:	63 9f       	mul	r22, r19
    10ba:	90 0d       	add	r25, r0
    10bc:	72 9f       	mul	r23, r18
    10be:	90 0d       	add	r25, r0
    10c0:	11 24       	eor	r1, r1
    10c2:	e8 0f       	add	r30, r24
    10c4:	f9 1f       	adc	r31, r25
    10c6:	82 8d       	ldd	r24, Z+26	; 0x1a
    10c8:	86 95       	lsr	r24
    10ca:	8f 70       	andi	r24, 0x0F	; 15
    10cc:	84 30       	cpi	r24, 0x04	; 4
    10ce:	09 f4       	brne	.+2      	; 0x10d2 <Timebase_UpCounter_Expired+0x30>
    10d0:	41 e0       	ldi	r20, 0x01	; 1
  if(Timebase_UpCounter_Get_Status( window ) == 4){
    return 1;
  }else{
    return 0;
  }
}
    10d2:	84 2f       	mov	r24, r20
    10d4:	08 95       	ret

000010d6 <Timebase_UpCounter_Expired_Event>:

uint8_t Timebase_UpCounter_Expired_Event(uint8_t window){
    10d6:	48 2f       	mov	r20, r24
  if(Timebase_UpCounter_Get_Status( window ) == 4){
    10d8:	e0 91 41 01 	lds	r30, 0x0141
    10dc:	f0 91 42 01 	lds	r31, 0x0142
    10e0:	28 2f       	mov	r18, r24
    10e2:	30 e0       	ldi	r19, 0x00	; 0
    10e4:	85 e1       	ldi	r24, 0x15	; 21
    10e6:	90 e0       	ldi	r25, 0x00	; 0
    10e8:	bc 01       	movw	r22, r24
    10ea:	26 9f       	mul	r18, r22
    10ec:	c0 01       	movw	r24, r0
    10ee:	27 9f       	mul	r18, r23
    10f0:	90 0d       	add	r25, r0
    10f2:	36 9f       	mul	r19, r22
    10f4:	90 0d       	add	r25, r0
    10f6:	11 24       	eor	r1, r1
    10f8:	e8 0f       	add	r30, r24
    10fa:	f9 1f       	adc	r31, r25
    10fc:	82 8d       	ldd	r24, Z+26	; 0x1a
    10fe:	86 95       	lsr	r24
    1100:	8f 70       	andi	r24, 0x0F	; 15
    1102:	84 30       	cpi	r24, 0x04	; 4
    1104:	11 f0       	breq	.+4      	; 0x110a <Timebase_UpCounter_Expired_Event+0x34>
    1106:	80 e0       	ldi	r24, 0x00	; 0
    1108:	08 95       	ret
  Timebase_UpCounter_Set_PeriodValue(window, 0);
  Timebase_UpCounter_Clear_Period_Flag(window);
} 

void Timebase_UpCounter_Clear_All_Flags(uint8_t window){
  Timebase_UpCounter_Reset( window );
    110a:	84 2f       	mov	r24, r20
    110c:	0e 94 2e 07 	call	0xe5c	; 0xe5c <Timebase_UpCounter_Reset>
    1110:	81 e0       	ldi	r24, 0x01	; 1
    Timebase_UpCounter_Clear_All_Flags( window );
    return 1;
  }else{
    return 0;
  }
}
    1112:	08 95       	ret

00001114 <Timebase_UpCounter_Set_Period_Value_Securely>:
void Timebase_UpCounter_Set_PeriodValue(uint8_t window, uint32_t value){
  Timebase->UpCounter[window].PeriodValue = value;
}

uint8_t Timebase_UpCounter_Get_Period_Flag(uint8_t window){
  return Timebase->UpCounter[window].Status.PeriodFlag;
    1114:	e0 91 41 01 	lds	r30, 0x0141
    1118:	f0 91 42 01 	lds	r31, 0x0142
    111c:	90 e0       	ldi	r25, 0x00	; 0
    return 0;
  }
}

void Timebase_UpCounter_Set_Period_Value_Securely(uint8_t window, uint32_t value){
  if(Timebase_UpCounter_Get_Period_Flag( window ) == 0){
    111e:	25 e1       	ldi	r18, 0x15	; 21
    1120:	30 e0       	ldi	r19, 0x00	; 0
    1122:	dc 01       	movw	r26, r24
    1124:	a2 9f       	mul	r26, r18
    1126:	c0 01       	movw	r24, r0
    1128:	a3 9f       	mul	r26, r19
    112a:	90 0d       	add	r25, r0
    112c:	b2 9f       	mul	r27, r18
    112e:	90 0d       	add	r25, r0
    1130:	11 24       	eor	r1, r1
    1132:	e8 0f       	add	r30, r24
    1134:	f9 1f       	adc	r31, r25
    1136:	82 8d       	ldd	r24, Z+26	; 0x1a
    1138:	80 fd       	sbrc	r24, 0
    113a:	0f c0       	rjmp	.+30     	; 0x115a <Timebase_UpCounter_Set_Period_Value_Securely+0x46>
uint32_t Timebase_UpCounter_Get_PeriodValue(uint8_t window){
  return (uint32_t)Timebase->UpCounter[window].PeriodValue;
}

void Timebase_UpCounter_Set_PeriodValue(uint8_t window, uint32_t value){
  Timebase->UpCounter[window].PeriodValue = value;
    113c:	87 a1       	ldd	r24, Z+39	; 0x27
    113e:	90 a5       	ldd	r25, Z+40	; 0x28
    1140:	a1 a5       	ldd	r26, Z+41	; 0x29
    1142:	b2 a5       	ldd	r27, Z+42	; 0x2a
    1144:	84 0f       	add	r24, r20
    1146:	95 1f       	adc	r25, r21
    1148:	a6 1f       	adc	r26, r22
    114a:	b7 1f       	adc	r27, r23
    114c:	83 a7       	std	Z+43, r24	; 0x2b
    114e:	94 a7       	std	Z+44, r25	; 0x2c
    1150:	a5 a7       	std	Z+45, r26	; 0x2d
    1152:	b6 a7       	std	Z+46, r27	; 0x2e
uint8_t Timebase_UpCounter_Get_Period_Flag(uint8_t window){
  return Timebase->UpCounter[window].Status.PeriodFlag;
}

void Timebase_UpCounter_Set_Period_Flag(uint8_t window){
  Timebase->UpCounter[window].Status.PeriodFlag = 1;
    1154:	82 8d       	ldd	r24, Z+26	; 0x1a
    1156:	81 60       	ori	r24, 0x01	; 1
    1158:	82 8f       	std	Z+26, r24	; 0x1a
    115a:	08 95       	ret

0000115c <Timebase_UpCounter_Get_Remaining_Period_Value>:
void Timebase_UpCounter_Set_TemporaryValue(uint8_t window, uint32_t value){
  Timebase->UpCounter[window].Temporary = value;
}

uint32_t Timebase_UpCounter_Get_PeriodValue(uint8_t window){
  return (uint32_t)Timebase->UpCounter[window].PeriodValue;
    115c:	e0 91 41 01 	lds	r30, 0x0141
    1160:	f0 91 42 01 	lds	r31, 0x0142
    1164:	90 e0       	ldi	r25, 0x00	; 0
    Timebase_UpCounter_Set_Period_Flag( window);
  }
}

uint32_t Timebase_UpCounter_Get_Remaining_Period_Value(uint8_t window){
  int32_t temp = Timebase_UpCounter_Get_PeriodValue( window ) - Timebase_UpCounter_Get_Value( window );
    1166:	25 e1       	ldi	r18, 0x15	; 21
    1168:	30 e0       	ldi	r19, 0x00	; 0
    116a:	ac 01       	movw	r20, r24
    116c:	42 9f       	mul	r20, r18
    116e:	c0 01       	movw	r24, r0
    1170:	43 9f       	mul	r20, r19
    1172:	90 0d       	add	r25, r0
    1174:	52 9f       	mul	r21, r18
    1176:	90 0d       	add	r25, r0
    1178:	11 24       	eor	r1, r1
    117a:	e8 0f       	add	r30, r24
    117c:	f9 1f       	adc	r31, r25
    117e:	23 a5       	ldd	r18, Z+43	; 0x2b
    1180:	34 a5       	ldd	r19, Z+44	; 0x2c
    1182:	45 a5       	ldd	r20, Z+45	; 0x2d
    1184:	56 a5       	ldd	r21, Z+46	; 0x2e
    1186:	87 a1       	ldd	r24, Z+39	; 0x27
    1188:	90 a5       	ldd	r25, Z+40	; 0x28
    118a:	a1 a5       	ldd	r26, Z+41	; 0x29
    118c:	b2 a5       	ldd	r27, Z+42	; 0x2a
    118e:	28 1b       	sub	r18, r24
    1190:	39 0b       	sbc	r19, r25
    1192:	4a 0b       	sbc	r20, r26
    1194:	5b 0b       	sbc	r21, r27
    1196:	57 ff       	sbrs	r21, 7
    1198:	04 c0       	rjmp	.+8      	; 0x11a2 <Timebase_UpCounter_Get_Remaining_Period_Value+0x46>
    119a:	20 e0       	ldi	r18, 0x00	; 0
    119c:	30 e0       	ldi	r19, 0x00	; 0
    119e:	40 e0       	ldi	r20, 0x00	; 0
    11a0:	50 e0       	ldi	r21, 0x00	; 0
  if(temp < 0){
    temp = 0;
  }
  return temp;
}
    11a2:	b9 01       	movw	r22, r18
    11a4:	ca 01       	movw	r24, r20
    11a6:	08 95       	ret

000011a8 <Timebase_UpCounter_Period_Value_Expired>:

uint8_t Timebase_UpCounter_Period_Value_Expired(uint8_t window){
    11a8:	cf 93       	push	r28
    11aa:	df 93       	push	r29
void Timebase_UpCounter_Set_TemporaryValue(uint8_t window, uint32_t value){
  Timebase->UpCounter[window].Temporary = value;
}

uint32_t Timebase_UpCounter_Get_PeriodValue(uint8_t window){
  return (uint32_t)Timebase->UpCounter[window].PeriodValue;
    11ac:	c0 91 41 01 	lds	r28, 0x0141
    11b0:	d0 91 42 01 	lds	r29, 0x0142
    11b4:	68 2f       	mov	r22, r24
    11b6:	70 e0       	ldi	r23, 0x00	; 0
    Timebase_UpCounter_Set_Period_Flag( window);
  }
}

uint32_t Timebase_UpCounter_Get_Remaining_Period_Value(uint8_t window){
  int32_t temp = Timebase_UpCounter_Get_PeriodValue( window ) - Timebase_UpCounter_Get_Value( window );
    11b8:	85 e1       	ldi	r24, 0x15	; 21
    11ba:	90 e0       	ldi	r25, 0x00	; 0
    11bc:	68 9f       	mul	r22, r24
    11be:	f0 01       	movw	r30, r0
    11c0:	69 9f       	mul	r22, r25
    11c2:	f0 0d       	add	r31, r0
    11c4:	78 9f       	mul	r23, r24
    11c6:	f0 0d       	add	r31, r0
    11c8:	11 24       	eor	r1, r1
    11ca:	ec 0f       	add	r30, r28
    11cc:	fd 1f       	adc	r31, r29
    11ce:	23 a5       	ldd	r18, Z+43	; 0x2b
    11d0:	34 a5       	ldd	r19, Z+44	; 0x2c
    11d2:	45 a5       	ldd	r20, Z+45	; 0x2d
    11d4:	56 a5       	ldd	r21, Z+46	; 0x2e
    11d6:	87 a1       	ldd	r24, Z+39	; 0x27
    11d8:	90 a5       	ldd	r25, Z+40	; 0x28
    11da:	a1 a5       	ldd	r26, Z+41	; 0x29
    11dc:	b2 a5       	ldd	r27, Z+42	; 0x2a
    11de:	28 1b       	sub	r18, r24
    11e0:	39 0b       	sbc	r19, r25
    11e2:	4a 0b       	sbc	r20, r26
    11e4:	5b 0b       	sbc	r21, r27
  if(temp < 0){
    11e6:	57 fd       	sbrc	r21, 7
    11e8:	07 c0       	rjmp	.+14     	; 0x11f8 <Timebase_UpCounter_Period_Value_Expired+0x50>
  }
  return temp;
}

uint8_t Timebase_UpCounter_Period_Value_Expired(uint8_t window){
  if( (Timebase_UpCounter_Get_Remaining_Period_Value( window ) == 0) && Timebase_UpCounter_Get_Period_Flag( window )){
    11ea:	21 15       	cp	r18, r1
    11ec:	31 05       	cpc	r19, r1
    11ee:	41 05       	cpc	r20, r1
    11f0:	51 05       	cpc	r21, r1
    11f2:	11 f0       	breq	.+4      	; 0x11f8 <Timebase_UpCounter_Period_Value_Expired+0x50>
    11f4:	20 e0       	ldi	r18, 0x00	; 0
    11f6:	12 c0       	rjmp	.+36     	; 0x121c <Timebase_UpCounter_Period_Value_Expired+0x74>
    11f8:	20 e0       	ldi	r18, 0x00	; 0
    11fa:	85 e1       	ldi	r24, 0x15	; 21
    11fc:	90 e0       	ldi	r25, 0x00	; 0
    11fe:	ac 01       	movw	r20, r24
    1200:	64 9f       	mul	r22, r20
    1202:	c0 01       	movw	r24, r0
    1204:	65 9f       	mul	r22, r21
    1206:	90 0d       	add	r25, r0
    1208:	74 9f       	mul	r23, r20
    120a:	90 0d       	add	r25, r0
    120c:	11 24       	eor	r1, r1
    120e:	c8 0f       	add	r28, r24
    1210:	d9 1f       	adc	r29, r25
    1212:	8a 8d       	ldd	r24, Y+26	; 0x1a
    1214:	80 ff       	sbrs	r24, 0
    1216:	21 e0       	ldi	r18, 0x01	; 1
    1218:	81 e0       	ldi	r24, 0x01	; 1
    121a:	28 27       	eor	r18, r24
    return 1;
  }else{
    return 0;
  }
}
    121c:	82 2f       	mov	r24, r18
    121e:	df 91       	pop	r29
    1220:	cf 91       	pop	r28
    1222:	08 95       	ret

00001224 <Timebase_UpCounter_Period_Value_Expired_Event>:

uint8_t Timebase_UpCounter_Period_Value_Expired_Event(uint8_t window){
    1224:	1f 93       	push	r17
    1226:	18 2f       	mov	r17, r24
  if(Timebase_UpCounter_Period_Value_Expired( window ) == 1){
    1228:	0e 94 d4 08 	call	0x11a8	; 0x11a8 <Timebase_UpCounter_Period_Value_Expired>
    122c:	81 30       	cpi	r24, 0x01	; 1
    122e:	11 f0       	breq	.+4      	; 0x1234 <Timebase_UpCounter_Period_Value_Expired_Event+0x10>
    1230:	80 e0       	ldi	r24, 0x00	; 0
    1232:	16 c0       	rjmp	.+44     	; 0x1260 <Timebase_UpCounter_Period_Value_Expired_Event+0x3c>
void Timebase_UpCounter_Set_Period_Flag(uint8_t window){
  Timebase->UpCounter[window].Status.PeriodFlag = 1;
}

void Timebase_UpCounter_Clear_Period_Flag(uint8_t window){
  Timebase->UpCounter[window].Status.PeriodFlag = 0;
    1234:	e0 91 41 01 	lds	r30, 0x0141
    1238:	f0 91 42 01 	lds	r31, 0x0142
    123c:	21 2f       	mov	r18, r17
    123e:	30 e0       	ldi	r19, 0x00	; 0
    1240:	85 e1       	ldi	r24, 0x15	; 21
    1242:	90 e0       	ldi	r25, 0x00	; 0
    1244:	ac 01       	movw	r20, r24
    1246:	24 9f       	mul	r18, r20
    1248:	c0 01       	movw	r24, r0
    124a:	25 9f       	mul	r18, r21
    124c:	90 0d       	add	r25, r0
    124e:	34 9f       	mul	r19, r20
    1250:	90 0d       	add	r25, r0
    1252:	11 24       	eor	r1, r1
    1254:	e8 0f       	add	r30, r24
    1256:	f9 1f       	adc	r31, r25
    1258:	82 8d       	ldd	r24, Z+26	; 0x1a
    125a:	8e 7f       	andi	r24, 0xFE	; 254
    125c:	82 8f       	std	Z+26, r24	; 0x1a
    125e:	81 e0       	ldi	r24, 0x01	; 1
    Timebase_UpCounter_Clear_Period_Flag( window );
    return 1;
  }else{
    return 0;
  }
}
    1260:	1f 91       	pop	r17
    1262:	08 95       	ret

00001264 <Timebase_UpCounter_Update_All>:

void Timebase_UpCounter_Update_All(void){
  for(uint8_t i=0; i<TIMEBASE_UPCOUNTER; i++){
    Timebase_UpCounter_Update(i);
    1264:	80 e0       	ldi	r24, 0x00	; 0
    1266:	0e 94 dd 07 	call	0xfba	; 0xfba <Timebase_UpCounter_Update>
  }
}
    126a:	08 95       	ret

0000126c <Timebase_UpCounter_Reset_All>:

void Timebase_UpCounter_Reset_All(void){
  for(uint8_t i=0; i<TIMEBASE_UPCOUNTER; i++){
    Timebase_UpCounter_Reset(i);
    126c:	80 e0       	ldi	r24, 0x00	; 0
    126e:	0e 94 2e 07 	call	0xe5c	; 0xe5c <Timebase_UpCounter_Reset>
  }
}
    1272:	08 95       	ret

00001274 <Timebase_DownCounter_Get_Status>:
#endif



#ifdef TIMEBASE_DOWNCOUNTER
uint8_t Timebase_DownCounter_Get_Status(uint8_t window){
    1274:	e0 91 41 01 	lds	r30, 0x0141
    1278:	f0 91 42 01 	lds	r31, 0x0142
    127c:	90 e0       	ldi	r25, 0x00	; 0
    127e:	2d e0       	ldi	r18, 0x0D	; 13
    1280:	30 e0       	ldi	r19, 0x00	; 0
    1282:	ac 01       	movw	r20, r24
    1284:	42 9f       	mul	r20, r18
    1286:	c0 01       	movw	r24, r0
    1288:	43 9f       	mul	r20, r19
    128a:	90 0d       	add	r25, r0
    128c:	52 9f       	mul	r21, r18
    128e:	90 0d       	add	r25, r0
    1290:	11 24       	eor	r1, r1
    1292:	e8 0f       	add	r30, r24
    1294:	f9 1f       	adc	r31, r25
    1296:	87 a5       	ldd	r24, Z+47	; 0x2f
    1298:	86 95       	lsr	r24
  return Timebase->DownCounter[window].Status.Value;
}
    129a:	8f 70       	andi	r24, 0x0F	; 15
    129c:	08 95       	ret

0000129e <Timebase_DownCounter_Set_Status>:

void Timebase_DownCounter_Set_Status(uint8_t window, uint8_t value){
  Timebase->DownCounter[window].Status.Value = value;
    129e:	e0 91 41 01 	lds	r30, 0x0141
    12a2:	f0 91 42 01 	lds	r31, 0x0142
    12a6:	90 e0       	ldi	r25, 0x00	; 0
    12a8:	2d e0       	ldi	r18, 0x0D	; 13
    12aa:	30 e0       	ldi	r19, 0x00	; 0
    12ac:	ac 01       	movw	r20, r24
    12ae:	42 9f       	mul	r20, r18
    12b0:	c0 01       	movw	r24, r0
    12b2:	43 9f       	mul	r20, r19
    12b4:	90 0d       	add	r25, r0
    12b6:	52 9f       	mul	r21, r18
    12b8:	90 0d       	add	r25, r0
    12ba:	11 24       	eor	r1, r1
    12bc:	e8 0f       	add	r30, r24
    12be:	f9 1f       	adc	r31, r25
    12c0:	6f 70       	andi	r22, 0x0F	; 15
    12c2:	66 0f       	add	r22, r22
    12c4:	87 a5       	ldd	r24, Z+47	; 0x2f
    12c6:	81 7e       	andi	r24, 0xE1	; 225
    12c8:	86 2b       	or	r24, r22
    12ca:	87 a7       	std	Z+47, r24	; 0x2f
}
    12cc:	08 95       	ret

000012ce <Timebase_DownCounter_Get_Value>:

uint32_t Timebase_DownCounter_Get_Value(uint8_t window){
    12ce:	e0 91 41 01 	lds	r30, 0x0141
    12d2:	f0 91 42 01 	lds	r31, 0x0142
    12d6:	90 e0       	ldi	r25, 0x00	; 0
    12d8:	2d e0       	ldi	r18, 0x0D	; 13
    12da:	30 e0       	ldi	r19, 0x00	; 0
    12dc:	ac 01       	movw	r20, r24
    12de:	42 9f       	mul	r20, r18
    12e0:	c0 01       	movw	r24, r0
    12e2:	43 9f       	mul	r20, r19
    12e4:	90 0d       	add	r25, r0
    12e6:	52 9f       	mul	r21, r18
    12e8:	90 0d       	add	r25, r0
    12ea:	11 24       	eor	r1, r1
    12ec:	e8 0f       	add	r30, r24
    12ee:	f9 1f       	adc	r31, r25
    12f0:	df 01       	movw	r26, r30
    12f2:	d4 96       	adiw	r26, 0x34	; 52
    12f4:	64 a9       	ldd	r22, Z+52	; 0x34
    12f6:	11 96       	adiw	r26, 0x01	; 1
    12f8:	7c 91       	ld	r23, X
    12fa:	11 97       	sbiw	r26, 0x01	; 1
  return (uint32_t)Timebase->DownCounter[window].Value;
}
    12fc:	12 96       	adiw	r26, 0x02	; 2
    12fe:	8c 91       	ld	r24, X
    1300:	12 97       	sbiw	r26, 0x02	; 2
    1302:	13 96       	adiw	r26, 0x03	; 3
    1304:	9c 91       	ld	r25, X
    1306:	08 95       	ret

00001308 <Timebase_DownCounter_Set_Value>:

void Timebase_DownCounter_Set_Value(uint8_t window, uint32_t value){
  Timebase->DownCounter[window].Value = value;
    1308:	e0 91 41 01 	lds	r30, 0x0141
    130c:	f0 91 42 01 	lds	r31, 0x0142
    1310:	90 e0       	ldi	r25, 0x00	; 0
    1312:	2d e0       	ldi	r18, 0x0D	; 13
    1314:	30 e0       	ldi	r19, 0x00	; 0
    1316:	dc 01       	movw	r26, r24
    1318:	a2 9f       	mul	r26, r18
    131a:	c0 01       	movw	r24, r0
    131c:	a3 9f       	mul	r26, r19
    131e:	90 0d       	add	r25, r0
    1320:	b2 9f       	mul	r27, r18
    1322:	90 0d       	add	r25, r0
    1324:	11 24       	eor	r1, r1
    1326:	e8 0f       	add	r30, r24
    1328:	f9 1f       	adc	r31, r25
    132a:	44 ab       	std	Z+52, r20	; 0x34
    132c:	55 ab       	std	Z+53, r21	; 0x35
    132e:	66 ab       	std	Z+54, r22	; 0x36
    1330:	77 ab       	std	Z+55, r23	; 0x37
}
    1332:	08 95       	ret

00001334 <Timebase_DownCounter_Get_EndValue>:

uint32_t Timebase_DownCounter_Get_EndValue(uint8_t window){
    1334:	e0 91 41 01 	lds	r30, 0x0141
    1338:	f0 91 42 01 	lds	r31, 0x0142
    133c:	90 e0       	ldi	r25, 0x00	; 0
    133e:	2d e0       	ldi	r18, 0x0D	; 13
    1340:	30 e0       	ldi	r19, 0x00	; 0
    1342:	ac 01       	movw	r20, r24
    1344:	42 9f       	mul	r20, r18
    1346:	c0 01       	movw	r24, r0
    1348:	43 9f       	mul	r20, r19
    134a:	90 0d       	add	r25, r0
    134c:	52 9f       	mul	r21, r18
    134e:	90 0d       	add	r25, r0
    1350:	11 24       	eor	r1, r1
    1352:	e8 0f       	add	r30, r24
    1354:	f9 1f       	adc	r31, r25
    1356:	df 01       	movw	r26, r30
    1358:	d0 96       	adiw	r26, 0x30	; 48
    135a:	60 a9       	ldd	r22, Z+48	; 0x30
    135c:	11 96       	adiw	r26, 0x01	; 1
    135e:	7c 91       	ld	r23, X
    1360:	11 97       	sbiw	r26, 0x01	; 1
  return (uint32_t)Timebase->DownCounter[window].EndValue;
}
    1362:	12 96       	adiw	r26, 0x02	; 2
    1364:	8c 91       	ld	r24, X
    1366:	12 97       	sbiw	r26, 0x02	; 2
    1368:	13 96       	adiw	r26, 0x03	; 3
    136a:	9c 91       	ld	r25, X
    136c:	08 95       	ret

0000136e <Timebase_DownCounter_Set_EndValue>:

void Timebase_DownCounter_Set_EndValue(uint8_t window, uint32_t value){
  Timebase->DownCounter[window].EndValue = value;
    136e:	e0 91 41 01 	lds	r30, 0x0141
    1372:	f0 91 42 01 	lds	r31, 0x0142
    1376:	90 e0       	ldi	r25, 0x00	; 0
    1378:	2d e0       	ldi	r18, 0x0D	; 13
    137a:	30 e0       	ldi	r19, 0x00	; 0
    137c:	dc 01       	movw	r26, r24
    137e:	a2 9f       	mul	r26, r18
    1380:	c0 01       	movw	r24, r0
    1382:	a3 9f       	mul	r26, r19
    1384:	90 0d       	add	r25, r0
    1386:	b2 9f       	mul	r27, r18
    1388:	90 0d       	add	r25, r0
    138a:	11 24       	eor	r1, r1
    138c:	e8 0f       	add	r30, r24
    138e:	f9 1f       	adc	r31, r25
    1390:	40 ab       	std	Z+48, r20	; 0x30
    1392:	51 ab       	std	Z+49, r21	; 0x31
    1394:	62 ab       	std	Z+50, r22	; 0x32
    1396:	73 ab       	std	Z+51, r23	; 0x33
}
    1398:	08 95       	ret

0000139a <Timebase_DownCounter_Get_PeriodValue>:


uint32_t Timebase_DownCounter_Get_PeriodValue(uint8_t window){
    139a:	e0 91 41 01 	lds	r30, 0x0141
    139e:	f0 91 42 01 	lds	r31, 0x0142
    13a2:	90 e0       	ldi	r25, 0x00	; 0
    13a4:	2d e0       	ldi	r18, 0x0D	; 13
    13a6:	30 e0       	ldi	r19, 0x00	; 0
    13a8:	ac 01       	movw	r20, r24
    13aa:	42 9f       	mul	r20, r18
    13ac:	c0 01       	movw	r24, r0
    13ae:	43 9f       	mul	r20, r19
    13b0:	90 0d       	add	r25, r0
    13b2:	52 9f       	mul	r21, r18
    13b4:	90 0d       	add	r25, r0
    13b6:	11 24       	eor	r1, r1
    13b8:	e8 0f       	add	r30, r24
    13ba:	f9 1f       	adc	r31, r25
    13bc:	df 01       	movw	r26, r30
    13be:	d8 96       	adiw	r26, 0x38	; 56
    13c0:	60 ad       	ldd	r22, Z+56	; 0x38
    13c2:	11 96       	adiw	r26, 0x01	; 1
    13c4:	7c 91       	ld	r23, X
    13c6:	11 97       	sbiw	r26, 0x01	; 1
  return (uint32_t)Timebase->DownCounter[window].PeriodValue;
}
    13c8:	12 96       	adiw	r26, 0x02	; 2
    13ca:	8c 91       	ld	r24, X
    13cc:	12 97       	sbiw	r26, 0x02	; 2
    13ce:	13 96       	adiw	r26, 0x03	; 3
    13d0:	9c 91       	ld	r25, X
    13d2:	08 95       	ret

000013d4 <Timebase_DownCounter_Set_PeriodValue>:

void Timebase_DownCounter_Set_PeriodValue(uint8_t window, uint32_t value){
  if(value < 0){
    Timebase->DownCounter[window].PeriodValue = 0;
  }else{
    Timebase->DownCounter[window].PeriodValue = value;
    13d4:	e0 91 41 01 	lds	r30, 0x0141
    13d8:	f0 91 42 01 	lds	r31, 0x0142
    13dc:	90 e0       	ldi	r25, 0x00	; 0
    13de:	2d e0       	ldi	r18, 0x0D	; 13
    13e0:	30 e0       	ldi	r19, 0x00	; 0
    13e2:	dc 01       	movw	r26, r24
    13e4:	a2 9f       	mul	r26, r18
    13e6:	c0 01       	movw	r24, r0
    13e8:	a3 9f       	mul	r26, r19
    13ea:	90 0d       	add	r25, r0
    13ec:	b2 9f       	mul	r27, r18
    13ee:	90 0d       	add	r25, r0
    13f0:	11 24       	eor	r1, r1
    13f2:	e8 0f       	add	r30, r24
    13f4:	f9 1f       	adc	r31, r25
    13f6:	40 af       	std	Z+56, r20	; 0x38
    13f8:	51 af       	std	Z+57, r21	; 0x39
    13fa:	62 af       	std	Z+58, r22	; 0x3a
    13fc:	73 af       	std	Z+59, r23	; 0x3b
  }
  
}
    13fe:	08 95       	ret

00001400 <Timebase_DownCounter_Get_Period_Flag>:

uint8_t Timebase_DownCounter_Get_Period_Flag(uint8_t window){
    1400:	e0 91 41 01 	lds	r30, 0x0141
    1404:	f0 91 42 01 	lds	r31, 0x0142
    1408:	90 e0       	ldi	r25, 0x00	; 0
    140a:	2d e0       	ldi	r18, 0x0D	; 13
    140c:	30 e0       	ldi	r19, 0x00	; 0
    140e:	ac 01       	movw	r20, r24
    1410:	42 9f       	mul	r20, r18
    1412:	c0 01       	movw	r24, r0
    1414:	43 9f       	mul	r20, r19
    1416:	90 0d       	add	r25, r0
    1418:	52 9f       	mul	r21, r18
    141a:	90 0d       	add	r25, r0
    141c:	11 24       	eor	r1, r1
    141e:	e8 0f       	add	r30, r24
    1420:	f9 1f       	adc	r31, r25
    1422:	87 a5       	ldd	r24, Z+47	; 0x2f
  return (uint8_t)Timebase->DownCounter[window].Status.PeriodFlag;
}
    1424:	81 70       	andi	r24, 0x01	; 1
    1426:	08 95       	ret

00001428 <Timebase_DownCounter_Set_Period_Flag>:

void Timebase_DownCounter_Set_Period_Flag(uint8_t window){
  Timebase->DownCounter[window].Status.PeriodFlag = 1;
    1428:	e0 91 41 01 	lds	r30, 0x0141
    142c:	f0 91 42 01 	lds	r31, 0x0142
    1430:	90 e0       	ldi	r25, 0x00	; 0
    1432:	2d e0       	ldi	r18, 0x0D	; 13
    1434:	30 e0       	ldi	r19, 0x00	; 0
    1436:	ac 01       	movw	r20, r24
    1438:	42 9f       	mul	r20, r18
    143a:	c0 01       	movw	r24, r0
    143c:	43 9f       	mul	r20, r19
    143e:	90 0d       	add	r25, r0
    1440:	52 9f       	mul	r21, r18
    1442:	90 0d       	add	r25, r0
    1444:	11 24       	eor	r1, r1
    1446:	e8 0f       	add	r30, r24
    1448:	f9 1f       	adc	r31, r25
    144a:	87 a5       	ldd	r24, Z+47	; 0x2f
    144c:	81 60       	ori	r24, 0x01	; 1
    144e:	87 a7       	std	Z+47, r24	; 0x2f
}
    1450:	08 95       	ret

00001452 <Timebase_DownCounter_Clear_Period_Flag>:

void Timebase_DownCounter_Clear_Period_Flag(uint8_t window){
  Timebase->DownCounter[window].Status.PeriodFlag = 0;
    1452:	e0 91 41 01 	lds	r30, 0x0141
    1456:	f0 91 42 01 	lds	r31, 0x0142
    145a:	90 e0       	ldi	r25, 0x00	; 0
    145c:	2d e0       	ldi	r18, 0x0D	; 13
    145e:	30 e0       	ldi	r19, 0x00	; 0
    1460:	ac 01       	movw	r20, r24
    1462:	42 9f       	mul	r20, r18
    1464:	c0 01       	movw	r24, r0
    1466:	43 9f       	mul	r20, r19
    1468:	90 0d       	add	r25, r0
    146a:	52 9f       	mul	r21, r18
    146c:	90 0d       	add	r25, r0
    146e:	11 24       	eor	r1, r1
    1470:	e8 0f       	add	r30, r24
    1472:	f9 1f       	adc	r31, r25
    1474:	87 a5       	ldd	r24, Z+47	; 0x2f
    1476:	8e 7f       	andi	r24, 0xFE	; 254
    1478:	87 a7       	std	Z+47, r24	; 0x2f
}
    147a:	08 95       	ret

0000147c <Timebase_DownCounter_Reset>:
uint32_t Timebase_DownCounter_Get_EndValue(uint8_t window){
  return (uint32_t)Timebase->DownCounter[window].EndValue;
}

void Timebase_DownCounter_Set_EndValue(uint8_t window, uint32_t value){
  Timebase->DownCounter[window].EndValue = value;
    147c:	e0 91 41 01 	lds	r30, 0x0141
    1480:	f0 91 42 01 	lds	r31, 0x0142
    1484:	90 e0       	ldi	r25, 0x00	; 0
    1486:	2d e0       	ldi	r18, 0x0D	; 13
    1488:	30 e0       	ldi	r19, 0x00	; 0
    148a:	ac 01       	movw	r20, r24
    148c:	42 9f       	mul	r20, r18
    148e:	c0 01       	movw	r24, r0
    1490:	43 9f       	mul	r20, r19
    1492:	90 0d       	add	r25, r0
    1494:	52 9f       	mul	r21, r18
    1496:	90 0d       	add	r25, r0
    1498:	11 24       	eor	r1, r1
    149a:	e8 0f       	add	r30, r24
    149c:	f9 1f       	adc	r31, r25
    149e:	10 aa       	std	Z+48, r1	; 0x30
    14a0:	11 aa       	std	Z+49, r1	; 0x31
    14a2:	12 aa       	std	Z+50, r1	; 0x32
    14a4:	13 aa       	std	Z+51, r1	; 0x33
uint32_t Timebase_DownCounter_Get_Value(uint8_t window){
  return (uint32_t)Timebase->DownCounter[window].Value;
}

void Timebase_DownCounter_Set_Value(uint8_t window, uint32_t value){
  Timebase->DownCounter[window].Value = value;
    14a6:	14 aa       	std	Z+52, r1	; 0x34
    14a8:	15 aa       	std	Z+53, r1	; 0x35
    14aa:	16 aa       	std	Z+54, r1	; 0x36
    14ac:	17 aa       	std	Z+55, r1	; 0x37
uint8_t Timebase_DownCounter_Get_Status(uint8_t window){
  return Timebase->DownCounter[window].Status.Value;
}

void Timebase_DownCounter_Set_Status(uint8_t window, uint8_t value){
  Timebase->DownCounter[window].Status.Value = value;
    14ae:	87 a5       	ldd	r24, Z+47	; 0x2f
void Timebase_DownCounter_Set_Period_Flag(uint8_t window){
  Timebase->DownCounter[window].Status.PeriodFlag = 1;
}

void Timebase_DownCounter_Clear_Period_Flag(uint8_t window){
  Timebase->DownCounter[window].Status.PeriodFlag = 0;
    14b0:	80 7e       	andi	r24, 0xE0	; 224
    14b2:	87 a7       	std	Z+47, r24	; 0x2f
void Timebase_DownCounter_Reset(uint8_t window){
  Timebase_DownCounter_Set_EndValue(window, 0);
  Timebase_DownCounter_Set_Value(window, 0);
  Timebase_DownCounter_Set_Status(window, 0);
  Timebase_DownCounter_Clear_Period_Flag(window);
} 
    14b4:	08 95       	ret

000014b6 <Timebase_DownCounter_Clear_All_Flags>:
uint32_t Timebase_DownCounter_Get_EndValue(uint8_t window){
  return (uint32_t)Timebase->DownCounter[window].EndValue;
}

void Timebase_DownCounter_Set_EndValue(uint8_t window, uint32_t value){
  Timebase->DownCounter[window].EndValue = value;
    14b6:	e0 91 41 01 	lds	r30, 0x0141
    14ba:	f0 91 42 01 	lds	r31, 0x0142
    14be:	90 e0       	ldi	r25, 0x00	; 0
    14c0:	2d e0       	ldi	r18, 0x0D	; 13
    14c2:	30 e0       	ldi	r19, 0x00	; 0
    14c4:	ac 01       	movw	r20, r24
    14c6:	42 9f       	mul	r20, r18
    14c8:	c0 01       	movw	r24, r0
    14ca:	43 9f       	mul	r20, r19
    14cc:	90 0d       	add	r25, r0
    14ce:	52 9f       	mul	r21, r18
    14d0:	90 0d       	add	r25, r0
    14d2:	11 24       	eor	r1, r1
    14d4:	e8 0f       	add	r30, r24
    14d6:	f9 1f       	adc	r31, r25
    14d8:	10 aa       	std	Z+48, r1	; 0x30
    14da:	11 aa       	std	Z+49, r1	; 0x31
    14dc:	12 aa       	std	Z+50, r1	; 0x32
    14de:	13 aa       	std	Z+51, r1	; 0x33
uint32_t Timebase_DownCounter_Get_Value(uint8_t window){
  return (uint32_t)Timebase->DownCounter[window].Value;
}

void Timebase_DownCounter_Set_Value(uint8_t window, uint32_t value){
  Timebase->DownCounter[window].Value = value;
    14e0:	14 aa       	std	Z+52, r1	; 0x34
    14e2:	15 aa       	std	Z+53, r1	; 0x35
    14e4:	16 aa       	std	Z+54, r1	; 0x36
    14e6:	17 aa       	std	Z+55, r1	; 0x37
uint8_t Timebase_DownCounter_Get_Status(uint8_t window){
  return Timebase->DownCounter[window].Status.Value;
}

void Timebase_DownCounter_Set_Status(uint8_t window, uint8_t value){
  Timebase->DownCounter[window].Status.Value = value;
    14e8:	87 a5       	ldd	r24, Z+47	; 0x2f
void Timebase_DownCounter_Set_Period_Flag(uint8_t window){
  Timebase->DownCounter[window].Status.PeriodFlag = 1;
}

void Timebase_DownCounter_Clear_Period_Flag(uint8_t window){
  Timebase->DownCounter[window].Status.PeriodFlag = 0;
    14ea:	80 7e       	andi	r24, 0xE0	; 224
    14ec:	87 a7       	std	Z+47, r24	; 0x2f
  Timebase_DownCounter_Clear_Period_Flag(window);
} 

void Timebase_DownCounter_Clear_All_Flags(uint8_t window){
  Timebase_DownCounter_Reset( window );
}
    14ee:	08 95       	ret

000014f0 <Timebase_DownCounter_Start>:



#ifdef TIMEBASE_DOWNCOUNTER
uint8_t Timebase_DownCounter_Get_Status(uint8_t window){
  return Timebase->DownCounter[window].Status.Value;
    14f0:	e0 91 41 01 	lds	r30, 0x0141
    14f4:	f0 91 42 01 	lds	r31, 0x0142
    14f8:	90 e0       	ldi	r25, 0x00	; 0
void Timebase_DownCounter_Clear_All_Flags(uint8_t window){
  Timebase_DownCounter_Reset( window );
}

void Timebase_DownCounter_Start(uint8_t window){
  if(Timebase_DownCounter_Get_Status(window) != 1){
    14fa:	2d e0       	ldi	r18, 0x0D	; 13
    14fc:	30 e0       	ldi	r19, 0x00	; 0
    14fe:	ac 01       	movw	r20, r24
    1500:	42 9f       	mul	r20, r18
    1502:	c0 01       	movw	r24, r0
    1504:	43 9f       	mul	r20, r19
    1506:	90 0d       	add	r25, r0
    1508:	52 9f       	mul	r21, r18
    150a:	90 0d       	add	r25, r0
    150c:	11 24       	eor	r1, r1
    150e:	e8 0f       	add	r30, r24
    1510:	f9 1f       	adc	r31, r25
    1512:	97 a5       	ldd	r25, Z+47	; 0x2f
    1514:	89 2f       	mov	r24, r25
    1516:	86 95       	lsr	r24
    1518:	8f 70       	andi	r24, 0x0F	; 15
    151a:	81 30       	cpi	r24, 0x01	; 1
    151c:	19 f0       	breq	.+6      	; 0x1524 <Timebase_DownCounter_Start+0x34>
uint8_t Timebase_DownCounter_Get_Status(uint8_t window){
  return Timebase->DownCounter[window].Status.Value;
}

void Timebase_DownCounter_Set_Status(uint8_t window, uint8_t value){
  Timebase->DownCounter[window].Status.Value = value;
    151e:	91 7e       	andi	r25, 0xE1	; 225
    1520:	92 60       	ori	r25, 0x02	; 2
    1522:	97 a7       	std	Z+47, r25	; 0x2f
    1524:	08 95       	ret

00001526 <Timebase_DownCounter_Stop>:



#ifdef TIMEBASE_DOWNCOUNTER
uint8_t Timebase_DownCounter_Get_Status(uint8_t window){
  return Timebase->DownCounter[window].Status.Value;
    1526:	e0 91 41 01 	lds	r30, 0x0141
    152a:	f0 91 42 01 	lds	r31, 0x0142
    152e:	90 e0       	ldi	r25, 0x00	; 0
    Timebase_DownCounter_Set_Status(window, 1); 
  }
}

void Timebase_DownCounter_Stop(uint8_t window){
  if(Timebase_DownCounter_Get_Status(window) != 2){
    1530:	2d e0       	ldi	r18, 0x0D	; 13
    1532:	30 e0       	ldi	r19, 0x00	; 0
    1534:	ac 01       	movw	r20, r24
    1536:	42 9f       	mul	r20, r18
    1538:	c0 01       	movw	r24, r0
    153a:	43 9f       	mul	r20, r19
    153c:	90 0d       	add	r25, r0
    153e:	52 9f       	mul	r21, r18
    1540:	90 0d       	add	r25, r0
    1542:	11 24       	eor	r1, r1
    1544:	e8 0f       	add	r30, r24
    1546:	f9 1f       	adc	r31, r25
    1548:	97 a5       	ldd	r25, Z+47	; 0x2f
    154a:	89 2f       	mov	r24, r25
    154c:	86 95       	lsr	r24
    154e:	8f 70       	andi	r24, 0x0F	; 15
    1550:	82 30       	cpi	r24, 0x02	; 2
    1552:	19 f0       	breq	.+6      	; 0x155a <Timebase_DownCounter_Stop+0x34>
uint8_t Timebase_DownCounter_Get_Status(uint8_t window){
  return Timebase->DownCounter[window].Status.Value;
}

void Timebase_DownCounter_Set_Status(uint8_t window, uint8_t value){
  Timebase->DownCounter[window].Status.Value = value;
    1554:	91 7e       	andi	r25, 0xE1	; 225
    1556:	94 60       	ori	r25, 0x04	; 4
    1558:	97 a7       	std	Z+47, r25	; 0x2f
    155a:	08 95       	ret

0000155c <Timebase_DownCounter_Set_Securely>:



#ifdef TIMEBASE_DOWNCOUNTER
uint8_t Timebase_DownCounter_Get_Status(uint8_t window){
  return Timebase->DownCounter[window].Status.Value;
    155c:	a0 91 41 01 	lds	r26, 0x0141
    1560:	b0 91 42 01 	lds	r27, 0x0142
    1564:	90 e0       	ldi	r25, 0x00	; 0
  }
}


void Timebase_DownCounter_Set_Securely(uint8_t window, uint32_t value){
  if( Timebase_DownCounter_Get_Status( window ) == 0 ){
    1566:	2d e0       	ldi	r18, 0x0D	; 13
    1568:	30 e0       	ldi	r19, 0x00	; 0
    156a:	82 9f       	mul	r24, r18
    156c:	f0 01       	movw	r30, r0
    156e:	83 9f       	mul	r24, r19
    1570:	f0 0d       	add	r31, r0
    1572:	92 9f       	mul	r25, r18
    1574:	f0 0d       	add	r31, r0
    1576:	11 24       	eor	r1, r1
    1578:	ea 0f       	add	r30, r26
    157a:	fb 1f       	adc	r31, r27
    157c:	87 a5       	ldd	r24, Z+47	; 0x2f
    157e:	86 95       	lsr	r24
    1580:	8f 70       	andi	r24, 0x0F	; 15
    1582:	d9 f4       	brne	.+54     	; 0x15ba <Timebase_DownCounter_Set_Securely+0x5e>
uint32_t Timebase_DownCounter_Get_Value(uint8_t window){
  return (uint32_t)Timebase->DownCounter[window].Value;
}

void Timebase_DownCounter_Set_Value(uint8_t window, uint32_t value){
  Timebase->DownCounter[window].Value = value;
    1584:	44 ab       	std	Z+52, r20	; 0x34
    1586:	55 ab       	std	Z+53, r21	; 0x35
    1588:	66 ab       	std	Z+54, r22	; 0x36
    158a:	77 ab       	std	Z+55, r23	; 0x37
uint32_t Timebase_Timer_Get_SubSeconds(void){
  return Timebase->Time.SubSeconds;
}

uint32_t Timebase_Timer_Get_Seconds(void){
  return Timebase->Time.Seconds;
    158c:	1c 96       	adiw	r26, 0x0c	; 12
    158e:	8d 91       	ld	r24, X+
    1590:	9d 91       	ld	r25, X+
    1592:	0d 90       	ld	r0, X+
    1594:	bc 91       	ld	r27, X
    1596:	a0 2d       	mov	r26, r0
uint32_t Timebase_DownCounter_Get_EndValue(uint8_t window){
  return (uint32_t)Timebase->DownCounter[window].EndValue;
}

void Timebase_DownCounter_Set_EndValue(uint8_t window, uint32_t value){
  Timebase->DownCounter[window].EndValue = value;
    1598:	84 0f       	add	r24, r20
    159a:	95 1f       	adc	r25, r21
    159c:	a6 1f       	adc	r26, r22
    159e:	b7 1f       	adc	r27, r23
    15a0:	80 ab       	std	Z+48, r24	; 0x30
    15a2:	91 ab       	std	Z+49, r25	; 0x31
    15a4:	a2 ab       	std	Z+50, r26	; 0x32
    15a6:	b3 ab       	std	Z+51, r27	; 0x33
void Timebase_DownCounter_Clear_All_Flags(uint8_t window){
  Timebase_DownCounter_Reset( window );
}

void Timebase_DownCounter_Start(uint8_t window){
  if(Timebase_DownCounter_Get_Status(window) != 1){
    15a8:	97 a5       	ldd	r25, Z+47	; 0x2f
    15aa:	89 2f       	mov	r24, r25
    15ac:	86 95       	lsr	r24
    15ae:	8f 70       	andi	r24, 0x0F	; 15
    15b0:	81 30       	cpi	r24, 0x01	; 1
    15b2:	19 f0       	breq	.+6      	; 0x15ba <Timebase_DownCounter_Set_Securely+0x5e>
uint8_t Timebase_DownCounter_Get_Status(uint8_t window){
  return Timebase->DownCounter[window].Status.Value;
}

void Timebase_DownCounter_Set_Status(uint8_t window, uint8_t value){
  Timebase->DownCounter[window].Status.Value = value;
    15b4:	91 7e       	andi	r25, 0xE1	; 225
    15b6:	92 60       	ori	r25, 0x02	; 2
    15b8:	97 a7       	std	Z+47, r25	; 0x2f
    15ba:	08 95       	ret

000015bc <Timebase_DownCounter_Set_Forcefully>:
    Timebase_DownCounter_Set_EndValue(window, Timebase_Timer_Get_Seconds() + value);
    Timebase_DownCounter_Start(window);
  }
}

void Timebase_DownCounter_Set_Forcefully(uint8_t window, uint32_t value){
    15bc:	cf 93       	push	r28
    15be:	df 93       	push	r29
uint32_t Timebase_DownCounter_Get_EndValue(uint8_t window){
  return (uint32_t)Timebase->DownCounter[window].EndValue;
}

void Timebase_DownCounter_Set_EndValue(uint8_t window, uint32_t value){
  Timebase->DownCounter[window].EndValue = value;
    15c0:	e0 91 41 01 	lds	r30, 0x0141
    15c4:	f0 91 42 01 	lds	r31, 0x0142
    15c8:	a8 2f       	mov	r26, r24
    15ca:	b0 e0       	ldi	r27, 0x00	; 0
    15cc:	2d e0       	ldi	r18, 0x0D	; 13
    15ce:	30 e0       	ldi	r19, 0x00	; 0
    15d0:	e9 01       	movw	r28, r18
    15d2:	ac 9f       	mul	r26, r28
    15d4:	90 01       	movw	r18, r0
    15d6:	ad 9f       	mul	r26, r29
    15d8:	30 0d       	add	r19, r0
    15da:	bc 9f       	mul	r27, r28
    15dc:	30 0d       	add	r19, r0
    15de:	11 24       	eor	r1, r1
    15e0:	e2 0f       	add	r30, r18
    15e2:	f3 1f       	adc	r31, r19
    15e4:	10 aa       	std	Z+48, r1	; 0x30
    15e6:	11 aa       	std	Z+49, r1	; 0x31
    15e8:	12 aa       	std	Z+50, r1	; 0x32
    15ea:	13 aa       	std	Z+51, r1	; 0x33
uint32_t Timebase_DownCounter_Get_Value(uint8_t window){
  return (uint32_t)Timebase->DownCounter[window].Value;
}

void Timebase_DownCounter_Set_Value(uint8_t window, uint32_t value){
  Timebase->DownCounter[window].Value = value;
    15ec:	14 aa       	std	Z+52, r1	; 0x34
    15ee:	15 aa       	std	Z+53, r1	; 0x35
    15f0:	16 aa       	std	Z+54, r1	; 0x36
    15f2:	17 aa       	std	Z+55, r1	; 0x37
uint8_t Timebase_DownCounter_Get_Status(uint8_t window){
  return Timebase->DownCounter[window].Status.Value;
}

void Timebase_DownCounter_Set_Status(uint8_t window, uint8_t value){
  Timebase->DownCounter[window].Status.Value = value;
    15f4:	97 a5       	ldd	r25, Z+47	; 0x2f
void Timebase_DownCounter_Set_Period_Flag(uint8_t window){
  Timebase->DownCounter[window].Status.PeriodFlag = 1;
}

void Timebase_DownCounter_Clear_Period_Flag(uint8_t window){
  Timebase->DownCounter[window].Status.PeriodFlag = 0;
    15f6:	90 7e       	andi	r25, 0xE0	; 224
    15f8:	97 a7       	std	Z+47, r25	; 0x2f
  }
}

void Timebase_DownCounter_Set_Forcefully(uint8_t window, uint32_t value){
  Timebase_DownCounter_Reset( window );
  Timebase_DownCounter_Set_Securely( window, value );
    15fa:	0e 94 ae 0a 	call	0x155c	; 0x155c <Timebase_DownCounter_Set_Securely>
} 
    15fe:	df 91       	pop	r29
    1600:	cf 91       	pop	r28
    1602:	08 95       	ret

00001604 <Timebase_DownCounter_Update>:



#ifdef TIMEBASE_DOWNCOUNTER
uint8_t Timebase_DownCounter_Get_Status(uint8_t window){
  return Timebase->DownCounter[window].Status.Value;
    1604:	a0 91 41 01 	lds	r26, 0x0141
    1608:	b0 91 42 01 	lds	r27, 0x0142
    160c:	90 e0       	ldi	r25, 0x00	; 0
    160e:	2d e0       	ldi	r18, 0x0D	; 13
    1610:	30 e0       	ldi	r19, 0x00	; 0
    1612:	82 9f       	mul	r24, r18
    1614:	f0 01       	movw	r30, r0
    1616:	83 9f       	mul	r24, r19
    1618:	f0 0d       	add	r31, r0
    161a:	92 9f       	mul	r25, r18
    161c:	f0 0d       	add	r31, r0
    161e:	11 24       	eor	r1, r1
    1620:	ea 0f       	add	r30, r26
    1622:	fb 1f       	adc	r31, r27
    1624:	87 a5       	ldd	r24, Z+47	; 0x2f
    1626:	86 95       	lsr	r24
    1628:	8f 70       	andi	r24, 0x0F	; 15
  Timebase_DownCounter_Reset( window );
  Timebase_DownCounter_Set_Securely( window, value );
} 

void Timebase_DownCounter_Update(uint8_t window){
  if( Timebase_DownCounter_Get_Status( window ) == 1 ){ 
    162a:	81 30       	cpi	r24, 0x01	; 1
    162c:	19 f5       	brne	.+70     	; 0x1674 <Timebase_DownCounter_Update+0x70>
uint32_t Timebase_Timer_Get_SubSeconds(void){
  return Timebase->Time.SubSeconds;
}

uint32_t Timebase_Timer_Get_Seconds(void){
  return Timebase->Time.Seconds;
    162e:	1c 96       	adiw	r26, 0x0c	; 12
    1630:	2d 91       	ld	r18, X+
    1632:	3d 91       	ld	r19, X+
    1634:	4d 91       	ld	r20, X+
    1636:	5c 91       	ld	r21, X
    1638:	1f 97       	sbiw	r26, 0x0f	; 15
uint32_t Timebase_DownCounter_Get_Value(uint8_t window){
  return (uint32_t)Timebase->DownCounter[window].Value;
}

void Timebase_DownCounter_Set_Value(uint8_t window, uint32_t value){
  Timebase->DownCounter[window].Value = value;
    163a:	80 a9       	ldd	r24, Z+48	; 0x30
    163c:	91 a9       	ldd	r25, Z+49	; 0x31
    163e:	a2 a9       	ldd	r26, Z+50	; 0x32
    1640:	b3 a9       	ldd	r27, Z+51	; 0x33
    1642:	82 1b       	sub	r24, r18
    1644:	93 0b       	sbc	r25, r19
    1646:	a4 0b       	sbc	r26, r20
    1648:	b5 0b       	sbc	r27, r21
    164a:	84 ab       	std	Z+52, r24	; 0x34
    164c:	95 ab       	std	Z+53, r25	; 0x35
    164e:	a6 ab       	std	Z+54, r26	; 0x36
    1650:	b7 ab       	std	Z+55, r27	; 0x37
} 

void Timebase_DownCounter_Update(uint8_t window){
  if( Timebase_DownCounter_Get_Status( window ) == 1 ){ 
    Timebase_DownCounter_Set_Value(window, Timebase_DownCounter_Get_EndValue(window) - Timebase_Timer_Get_Seconds());
    if(Timebase_DownCounter_Get_Value(window) <= 0){
    1652:	00 97       	sbiw	r24, 0x00	; 0
    1654:	a1 05       	cpc	r26, r1
    1656:	b1 05       	cpc	r27, r1
    1658:	09 f5       	brne	.+66     	; 0x169c <Timebase_DownCounter_Update+0x98>
uint32_t Timebase_DownCounter_Get_EndValue(uint8_t window){
  return (uint32_t)Timebase->DownCounter[window].EndValue;
}

void Timebase_DownCounter_Set_EndValue(uint8_t window, uint32_t value){
  Timebase->DownCounter[window].EndValue = value;
    165a:	10 aa       	std	Z+48, r1	; 0x30
    165c:	11 aa       	std	Z+49, r1	; 0x31
    165e:	12 aa       	std	Z+50, r1	; 0x32
    1660:	13 aa       	std	Z+51, r1	; 0x33
uint32_t Timebase_DownCounter_Get_Value(uint8_t window){
  return (uint32_t)Timebase->DownCounter[window].Value;
}

void Timebase_DownCounter_Set_Value(uint8_t window, uint32_t value){
  Timebase->DownCounter[window].Value = value;
    1662:	14 aa       	std	Z+52, r1	; 0x34
    1664:	15 aa       	std	Z+53, r1	; 0x35
    1666:	16 aa       	std	Z+54, r1	; 0x36
    1668:	17 aa       	std	Z+55, r1	; 0x37
void Timebase_DownCounter_Set_Period_Flag(uint8_t window){
  Timebase->DownCounter[window].Status.PeriodFlag = 1;
}

void Timebase_DownCounter_Clear_Period_Flag(uint8_t window){
  Timebase->DownCounter[window].Status.PeriodFlag = 0;
    166a:	87 a5       	ldd	r24, Z+47	; 0x2f
uint8_t Timebase_DownCounter_Get_Status(uint8_t window){
  return Timebase->DownCounter[window].Status.Value;
}

void Timebase_DownCounter_Set_Status(uint8_t window, uint8_t value){
  Timebase->DownCounter[window].Status.Value = value;
    166c:	80 7e       	andi	r24, 0xE0	; 224
    166e:	88 60       	ori	r24, 0x08	; 8
    1670:	87 a7       	std	Z+47, r24	; 0x2f
    1672:	08 95       	ret
    Timebase_DownCounter_Set_Value(window, Timebase_DownCounter_Get_EndValue(window) - Timebase_Timer_Get_Seconds());
    if(Timebase_DownCounter_Get_Value(window) <= 0){
      Timebase_DownCounter_Reset(window);
      Timebase_DownCounter_Set_Status(window, 4);
    }
  } else if (Timebase_DownCounter_Get_Status( window ) == 2){ 
    1674:	82 30       	cpi	r24, 0x02	; 2
    1676:	91 f4       	brne	.+36     	; 0x169c <Timebase_DownCounter_Update+0x98>
uint32_t Timebase_Timer_Get_SubSeconds(void){
  return Timebase->Time.SubSeconds;
}

uint32_t Timebase_Timer_Get_Seconds(void){
  return Timebase->Time.Seconds;
    1678:	1c 96       	adiw	r26, 0x0c	; 12
    167a:	2d 91       	ld	r18, X+
    167c:	3d 91       	ld	r19, X+
    167e:	4d 91       	ld	r20, X+
    1680:	5c 91       	ld	r21, X
    1682:	1f 97       	sbiw	r26, 0x0f	; 15
uint32_t Timebase_DownCounter_Get_EndValue(uint8_t window){
  return (uint32_t)Timebase->DownCounter[window].EndValue;
}

void Timebase_DownCounter_Set_EndValue(uint8_t window, uint32_t value){
  Timebase->DownCounter[window].EndValue = value;
    1684:	84 a9       	ldd	r24, Z+52	; 0x34
    1686:	95 a9       	ldd	r25, Z+53	; 0x35
    1688:	a6 a9       	ldd	r26, Z+54	; 0x36
    168a:	b7 a9       	ldd	r27, Z+55	; 0x37
    168c:	82 0f       	add	r24, r18
    168e:	93 1f       	adc	r25, r19
    1690:	a4 1f       	adc	r26, r20
    1692:	b5 1f       	adc	r27, r21
    1694:	80 ab       	std	Z+48, r24	; 0x30
    1696:	91 ab       	std	Z+49, r25	; 0x31
    1698:	a2 ab       	std	Z+50, r26	; 0x32
    169a:	b3 ab       	std	Z+51, r27	; 0x33
    169c:	08 95       	ret

0000169e <Timebase_DownCounter_Expired>:
  } else if (Timebase_DownCounter_Get_Status( window ) == 2){ 
    Timebase_DownCounter_Set_EndValue(window, Timebase_DownCounter_Get_Value(window) + Timebase_Timer_Get_Seconds());
  }
}

uint8_t Timebase_DownCounter_Expired(uint8_t window){
    169e:	40 e0       	ldi	r20, 0x00	; 0
    16a0:	e0 91 41 01 	lds	r30, 0x0141
    16a4:	f0 91 42 01 	lds	r31, 0x0142
    16a8:	90 e0       	ldi	r25, 0x00	; 0
    16aa:	2d e0       	ldi	r18, 0x0D	; 13
    16ac:	30 e0       	ldi	r19, 0x00	; 0
    16ae:	bc 01       	movw	r22, r24
    16b0:	62 9f       	mul	r22, r18
    16b2:	c0 01       	movw	r24, r0
    16b4:	63 9f       	mul	r22, r19
    16b6:	90 0d       	add	r25, r0
    16b8:	72 9f       	mul	r23, r18
    16ba:	90 0d       	add	r25, r0
    16bc:	11 24       	eor	r1, r1
    16be:	e8 0f       	add	r30, r24
    16c0:	f9 1f       	adc	r31, r25
    16c2:	87 a5       	ldd	r24, Z+47	; 0x2f
    16c4:	86 95       	lsr	r24
    16c6:	8f 70       	andi	r24, 0x0F	; 15
    16c8:	84 30       	cpi	r24, 0x04	; 4
    16ca:	09 f4       	brne	.+2      	; 0x16ce <Timebase_DownCounter_Expired+0x30>
    16cc:	41 e0       	ldi	r20, 0x01	; 1
  if(Timebase_DownCounter_Get_Status( window ) == 4){
    return 1;
  }else{
    return 0;
  }
}
    16ce:	84 2f       	mov	r24, r20
    16d0:	08 95       	ret

000016d2 <Timebase_DownCounter_Expired_Event>:



#ifdef TIMEBASE_DOWNCOUNTER
uint8_t Timebase_DownCounter_Get_Status(uint8_t window){
  return Timebase->DownCounter[window].Status.Value;
    16d2:	e0 91 41 01 	lds	r30, 0x0141
    16d6:	f0 91 42 01 	lds	r31, 0x0142
    16da:	90 e0       	ldi	r25, 0x00	; 0
    return 0;
  }
}

uint8_t Timebase_DownCounter_Expired_Event(uint8_t window){
  if(Timebase_DownCounter_Get_Status( window ) == 4){
    16dc:	2d e0       	ldi	r18, 0x0D	; 13
    16de:	30 e0       	ldi	r19, 0x00	; 0
    16e0:	ac 01       	movw	r20, r24
    16e2:	42 9f       	mul	r20, r18
    16e4:	c0 01       	movw	r24, r0
    16e6:	43 9f       	mul	r20, r19
    16e8:	90 0d       	add	r25, r0
    16ea:	52 9f       	mul	r21, r18
    16ec:	90 0d       	add	r25, r0
    16ee:	11 24       	eor	r1, r1
    16f0:	e8 0f       	add	r30, r24
    16f2:	f9 1f       	adc	r31, r25
    16f4:	87 a5       	ldd	r24, Z+47	; 0x2f
    16f6:	86 95       	lsr	r24
    16f8:	8f 70       	andi	r24, 0x0F	; 15
    16fa:	84 30       	cpi	r24, 0x04	; 4
    16fc:	11 f0       	breq	.+4      	; 0x1702 <Timebase_DownCounter_Expired_Event+0x30>
    16fe:	80 e0       	ldi	r24, 0x00	; 0
    1700:	08 95       	ret
uint32_t Timebase_DownCounter_Get_EndValue(uint8_t window){
  return (uint32_t)Timebase->DownCounter[window].EndValue;
}

void Timebase_DownCounter_Set_EndValue(uint8_t window, uint32_t value){
  Timebase->DownCounter[window].EndValue = value;
    1702:	10 aa       	std	Z+48, r1	; 0x30
    1704:	11 aa       	std	Z+49, r1	; 0x31
    1706:	12 aa       	std	Z+50, r1	; 0x32
    1708:	13 aa       	std	Z+51, r1	; 0x33
uint32_t Timebase_DownCounter_Get_Value(uint8_t window){
  return (uint32_t)Timebase->DownCounter[window].Value;
}

void Timebase_DownCounter_Set_Value(uint8_t window, uint32_t value){
  Timebase->DownCounter[window].Value = value;
    170a:	14 aa       	std	Z+52, r1	; 0x34
    170c:	15 aa       	std	Z+53, r1	; 0x35
    170e:	16 aa       	std	Z+54, r1	; 0x36
    1710:	17 aa       	std	Z+55, r1	; 0x37
uint8_t Timebase_DownCounter_Get_Status(uint8_t window){
  return Timebase->DownCounter[window].Status.Value;
}

void Timebase_DownCounter_Set_Status(uint8_t window, uint8_t value){
  Timebase->DownCounter[window].Status.Value = value;
    1712:	87 a5       	ldd	r24, Z+47	; 0x2f
void Timebase_DownCounter_Set_Period_Flag(uint8_t window){
  Timebase->DownCounter[window].Status.PeriodFlag = 1;
}

void Timebase_DownCounter_Clear_Period_Flag(uint8_t window){
  Timebase->DownCounter[window].Status.PeriodFlag = 0;
    1714:	80 7e       	andi	r24, 0xE0	; 224
    1716:	87 a7       	std	Z+47, r24	; 0x2f
    1718:	81 e0       	ldi	r24, 0x01	; 1
    Timebase_DownCounter_Clear_All_Flags( window );
    return 1;
  }else{
    return 0;
  }
}
    171a:	08 95       	ret

0000171c <Timebase_DownCounter_Set_Period_Value_Securely>:
  }
  
}

uint8_t Timebase_DownCounter_Get_Period_Flag(uint8_t window){
  return (uint8_t)Timebase->DownCounter[window].Status.PeriodFlag;
    171c:	e0 91 41 01 	lds	r30, 0x0141
    1720:	f0 91 42 01 	lds	r31, 0x0142
    1724:	90 e0       	ldi	r25, 0x00	; 0
  }
}


void Timebase_DownCounter_Set_Period_Value_Securely(uint8_t window, uint32_t value){
  if(Timebase_DownCounter_Get_Period_Flag( window ) == 0){
    1726:	2d e0       	ldi	r18, 0x0D	; 13
    1728:	30 e0       	ldi	r19, 0x00	; 0
    172a:	dc 01       	movw	r26, r24
    172c:	a2 9f       	mul	r26, r18
    172e:	c0 01       	movw	r24, r0
    1730:	a3 9f       	mul	r26, r19
    1732:	90 0d       	add	r25, r0
    1734:	b2 9f       	mul	r27, r18
    1736:	90 0d       	add	r25, r0
    1738:	11 24       	eor	r1, r1
    173a:	e8 0f       	add	r30, r24
    173c:	f9 1f       	adc	r31, r25
    173e:	87 a5       	ldd	r24, Z+47	; 0x2f
    1740:	80 fd       	sbrc	r24, 0
    1742:	0f c0       	rjmp	.+30     	; 0x1762 <Timebase_DownCounter_Set_Period_Value_Securely+0x46>

void Timebase_DownCounter_Set_PeriodValue(uint8_t window, uint32_t value){
  if(value < 0){
    Timebase->DownCounter[window].PeriodValue = 0;
  }else{
    Timebase->DownCounter[window].PeriodValue = value;
    1744:	84 a9       	ldd	r24, Z+52	; 0x34
    1746:	95 a9       	ldd	r25, Z+53	; 0x35
    1748:	a6 a9       	ldd	r26, Z+54	; 0x36
    174a:	b7 a9       	ldd	r27, Z+55	; 0x37
    174c:	84 1b       	sub	r24, r20
    174e:	95 0b       	sbc	r25, r21
    1750:	a6 0b       	sbc	r26, r22
    1752:	b7 0b       	sbc	r27, r23
    1754:	80 af       	std	Z+56, r24	; 0x38
    1756:	91 af       	std	Z+57, r25	; 0x39
    1758:	a2 af       	std	Z+58, r26	; 0x3a
    175a:	b3 af       	std	Z+59, r27	; 0x3b
uint8_t Timebase_DownCounter_Get_Period_Flag(uint8_t window){
  return (uint8_t)Timebase->DownCounter[window].Status.PeriodFlag;
}

void Timebase_DownCounter_Set_Period_Flag(uint8_t window){
  Timebase->DownCounter[window].Status.PeriodFlag = 1;
    175c:	87 a5       	ldd	r24, Z+47	; 0x2f
    175e:	81 60       	ori	r24, 0x01	; 1
    1760:	87 a7       	std	Z+47, r24	; 0x2f
    1762:	08 95       	ret

00001764 <Timebase_DownCounter_Get_Remaining_Period_Value>:
void Timebase_DownCounter_Set_Status(uint8_t window, uint8_t value){
  Timebase->DownCounter[window].Status.Value = value;
}

uint32_t Timebase_DownCounter_Get_Value(uint8_t window){
  return (uint32_t)Timebase->DownCounter[window].Value;
    1764:	e0 91 41 01 	lds	r30, 0x0141
    1768:	f0 91 42 01 	lds	r31, 0x0142
    176c:	90 e0       	ldi	r25, 0x00	; 0
    Timebase_DownCounter_Set_Period_Flag(window);
  }
}

uint32_t Timebase_DownCounter_Get_Remaining_Period_Value(uint8_t window){
  int32_t temp = Timebase_DownCounter_Get_Value(window) - Timebase_DownCounter_Get_PeriodValue(window) ;
    176e:	2d e0       	ldi	r18, 0x0D	; 13
    1770:	30 e0       	ldi	r19, 0x00	; 0
    1772:	ac 01       	movw	r20, r24
    1774:	42 9f       	mul	r20, r18
    1776:	c0 01       	movw	r24, r0
    1778:	43 9f       	mul	r20, r19
    177a:	90 0d       	add	r25, r0
    177c:	52 9f       	mul	r21, r18
    177e:	90 0d       	add	r25, r0
    1780:	11 24       	eor	r1, r1
    1782:	e8 0f       	add	r30, r24
    1784:	f9 1f       	adc	r31, r25
    1786:	24 a9       	ldd	r18, Z+52	; 0x34
    1788:	35 a9       	ldd	r19, Z+53	; 0x35
    178a:	46 a9       	ldd	r20, Z+54	; 0x36
    178c:	57 a9       	ldd	r21, Z+55	; 0x37
    178e:	80 ad       	ldd	r24, Z+56	; 0x38
    1790:	91 ad       	ldd	r25, Z+57	; 0x39
    1792:	a2 ad       	ldd	r26, Z+58	; 0x3a
    1794:	b3 ad       	ldd	r27, Z+59	; 0x3b
    1796:	28 1b       	sub	r18, r24
    1798:	39 0b       	sbc	r19, r25
    179a:	4a 0b       	sbc	r20, r26
    179c:	5b 0b       	sbc	r21, r27
    179e:	57 ff       	sbrs	r21, 7
    17a0:	04 c0       	rjmp	.+8      	; 0x17aa <Timebase_DownCounter_Get_Remaining_Period_Value+0x46>
    17a2:	20 e0       	ldi	r18, 0x00	; 0
    17a4:	30 e0       	ldi	r19, 0x00	; 0
    17a6:	40 e0       	ldi	r20, 0x00	; 0
    17a8:	50 e0       	ldi	r21, 0x00	; 0
  if(temp < 0){
    temp = 0;
  }
  return temp;
}
    17aa:	b9 01       	movw	r22, r18
    17ac:	ca 01       	movw	r24, r20
    17ae:	08 95       	ret

000017b0 <Timebase_DownCounter_Period_Value_Expired>:

uint8_t Timebase_DownCounter_Period_Value_Expired(uint8_t window){
    17b0:	cf 93       	push	r28
    17b2:	df 93       	push	r29
void Timebase_DownCounter_Set_Status(uint8_t window, uint8_t value){
  Timebase->DownCounter[window].Status.Value = value;
}

uint32_t Timebase_DownCounter_Get_Value(uint8_t window){
  return (uint32_t)Timebase->DownCounter[window].Value;
    17b4:	c0 91 41 01 	lds	r28, 0x0141
    17b8:	d0 91 42 01 	lds	r29, 0x0142
    17bc:	68 2f       	mov	r22, r24
    17be:	70 e0       	ldi	r23, 0x00	; 0
    Timebase_DownCounter_Set_Period_Flag(window);
  }
}

uint32_t Timebase_DownCounter_Get_Remaining_Period_Value(uint8_t window){
  int32_t temp = Timebase_DownCounter_Get_Value(window) - Timebase_DownCounter_Get_PeriodValue(window) ;
    17c0:	8d e0       	ldi	r24, 0x0D	; 13
    17c2:	90 e0       	ldi	r25, 0x00	; 0
    17c4:	68 9f       	mul	r22, r24
    17c6:	f0 01       	movw	r30, r0
    17c8:	69 9f       	mul	r22, r25
    17ca:	f0 0d       	add	r31, r0
    17cc:	78 9f       	mul	r23, r24
    17ce:	f0 0d       	add	r31, r0
    17d0:	11 24       	eor	r1, r1
    17d2:	ec 0f       	add	r30, r28
    17d4:	fd 1f       	adc	r31, r29
    17d6:	24 a9       	ldd	r18, Z+52	; 0x34
    17d8:	35 a9       	ldd	r19, Z+53	; 0x35
    17da:	46 a9       	ldd	r20, Z+54	; 0x36
    17dc:	57 a9       	ldd	r21, Z+55	; 0x37
    17de:	80 ad       	ldd	r24, Z+56	; 0x38
    17e0:	91 ad       	ldd	r25, Z+57	; 0x39
    17e2:	a2 ad       	ldd	r26, Z+58	; 0x3a
    17e4:	b3 ad       	ldd	r27, Z+59	; 0x3b
    17e6:	28 1b       	sub	r18, r24
    17e8:	39 0b       	sbc	r19, r25
    17ea:	4a 0b       	sbc	r20, r26
    17ec:	5b 0b       	sbc	r21, r27
  if(temp < 0){
    17ee:	57 fd       	sbrc	r21, 7
    17f0:	07 c0       	rjmp	.+14     	; 0x1800 <Timebase_DownCounter_Period_Value_Expired+0x50>
  }
  return temp;
}

uint8_t Timebase_DownCounter_Period_Value_Expired(uint8_t window){
  if( (Timebase_DownCounter_Get_Remaining_Period_Value( window ) == 0) && Timebase_DownCounter_Get_Period_Flag( window )){
    17f2:	21 15       	cp	r18, r1
    17f4:	31 05       	cpc	r19, r1
    17f6:	41 05       	cpc	r20, r1
    17f8:	51 05       	cpc	r21, r1
    17fa:	11 f0       	breq	.+4      	; 0x1800 <Timebase_DownCounter_Period_Value_Expired+0x50>
    17fc:	20 e0       	ldi	r18, 0x00	; 0
    17fe:	12 c0       	rjmp	.+36     	; 0x1824 <Timebase_DownCounter_Period_Value_Expired+0x74>
    1800:	20 e0       	ldi	r18, 0x00	; 0
    1802:	8d e0       	ldi	r24, 0x0D	; 13
    1804:	90 e0       	ldi	r25, 0x00	; 0
    1806:	ac 01       	movw	r20, r24
    1808:	64 9f       	mul	r22, r20
    180a:	c0 01       	movw	r24, r0
    180c:	65 9f       	mul	r22, r21
    180e:	90 0d       	add	r25, r0
    1810:	74 9f       	mul	r23, r20
    1812:	90 0d       	add	r25, r0
    1814:	11 24       	eor	r1, r1
    1816:	c8 0f       	add	r28, r24
    1818:	d9 1f       	adc	r29, r25
    181a:	8f a5       	ldd	r24, Y+47	; 0x2f
    181c:	80 ff       	sbrs	r24, 0
    181e:	21 e0       	ldi	r18, 0x01	; 1
    1820:	81 e0       	ldi	r24, 0x01	; 1
    1822:	28 27       	eor	r18, r24
    return 1;
  }else{
    return 0;
  }
}
    1824:	82 2f       	mov	r24, r18
    1826:	df 91       	pop	r29
    1828:	cf 91       	pop	r28
    182a:	08 95       	ret

0000182c <Timebase_DownCounter_Period_Value_Expired_Event>:

uint8_t Timebase_DownCounter_Period_Value_Expired_Event(uint8_t window){
    182c:	1f 93       	push	r17
    182e:	18 2f       	mov	r17, r24
  if(Timebase_DownCounter_Period_Value_Expired( window ) == 1){
    1830:	0e 94 d8 0b 	call	0x17b0	; 0x17b0 <Timebase_DownCounter_Period_Value_Expired>
    1834:	81 30       	cpi	r24, 0x01	; 1
    1836:	11 f0       	breq	.+4      	; 0x183c <Timebase_DownCounter_Period_Value_Expired_Event+0x10>
    1838:	80 e0       	ldi	r24, 0x00	; 0
    183a:	16 c0       	rjmp	.+44     	; 0x1868 <Timebase_DownCounter_Period_Value_Expired_Event+0x3c>
void Timebase_DownCounter_Set_Period_Flag(uint8_t window){
  Timebase->DownCounter[window].Status.PeriodFlag = 1;
}

void Timebase_DownCounter_Clear_Period_Flag(uint8_t window){
  Timebase->DownCounter[window].Status.PeriodFlag = 0;
    183c:	e0 91 41 01 	lds	r30, 0x0141
    1840:	f0 91 42 01 	lds	r31, 0x0142
    1844:	21 2f       	mov	r18, r17
    1846:	30 e0       	ldi	r19, 0x00	; 0
    1848:	8d e0       	ldi	r24, 0x0D	; 13
    184a:	90 e0       	ldi	r25, 0x00	; 0
    184c:	ac 01       	movw	r20, r24
    184e:	24 9f       	mul	r18, r20
    1850:	c0 01       	movw	r24, r0
    1852:	25 9f       	mul	r18, r21
    1854:	90 0d       	add	r25, r0
    1856:	34 9f       	mul	r19, r20
    1858:	90 0d       	add	r25, r0
    185a:	11 24       	eor	r1, r1
    185c:	e8 0f       	add	r30, r24
    185e:	f9 1f       	adc	r31, r25
    1860:	87 a5       	ldd	r24, Z+47	; 0x2f
    1862:	8e 7f       	andi	r24, 0xFE	; 254
    1864:	87 a7       	std	Z+47, r24	; 0x2f
    1866:	81 e0       	ldi	r24, 0x01	; 1
    Timebase_DownCounter_Clear_Period_Flag( window );
    return 1;
  }else{
    return 0;
  }
}
    1868:	1f 91       	pop	r17
    186a:	08 95       	ret

0000186c <Timebase_DownCounter_Update_All>:


void Timebase_DownCounter_Update_All(void){
  for(uint8_t i=0; i<TIMEBASE_DOWNCOUNTER; i++){
    Timebase_DownCounter_Update(i);
    186c:	80 e0       	ldi	r24, 0x00	; 0
    186e:	0e 94 02 0b 	call	0x1604	; 0x1604 <Timebase_DownCounter_Update>
  }
}
    1872:	08 95       	ret

00001874 <Timebase_DownCounter_Reset_All>:
uint32_t Timebase_DownCounter_Get_EndValue(uint8_t window){
  return (uint32_t)Timebase->DownCounter[window].EndValue;
}

void Timebase_DownCounter_Set_EndValue(uint8_t window, uint32_t value){
  Timebase->DownCounter[window].EndValue = value;
    1874:	e0 91 41 01 	lds	r30, 0x0141
    1878:	f0 91 42 01 	lds	r31, 0x0142
    187c:	10 aa       	std	Z+48, r1	; 0x30
    187e:	11 aa       	std	Z+49, r1	; 0x31
    1880:	12 aa       	std	Z+50, r1	; 0x32
    1882:	13 aa       	std	Z+51, r1	; 0x33
uint32_t Timebase_DownCounter_Get_Value(uint8_t window){
  return (uint32_t)Timebase->DownCounter[window].Value;
}

void Timebase_DownCounter_Set_Value(uint8_t window, uint32_t value){
  Timebase->DownCounter[window].Value = value;
    1884:	14 aa       	std	Z+52, r1	; 0x34
    1886:	15 aa       	std	Z+53, r1	; 0x35
    1888:	16 aa       	std	Z+54, r1	; 0x36
    188a:	17 aa       	std	Z+55, r1	; 0x37
uint8_t Timebase_DownCounter_Get_Status(uint8_t window){
  return Timebase->DownCounter[window].Status.Value;
}

void Timebase_DownCounter_Set_Status(uint8_t window, uint8_t value){
  Timebase->DownCounter[window].Status.Value = value;
    188c:	87 a5       	ldd	r24, Z+47	; 0x2f
void Timebase_DownCounter_Set_Period_Flag(uint8_t window){
  Timebase->DownCounter[window].Status.PeriodFlag = 1;
}

void Timebase_DownCounter_Clear_Period_Flag(uint8_t window){
  Timebase->DownCounter[window].Status.PeriodFlag = 0;
    188e:	80 7e       	andi	r24, 0xE0	; 224
    1890:	87 a7       	std	Z+47, r24	; 0x2f

void Timebase_DownCounter_Reset_All(void){
  for(uint8_t i=0; i<TIMEBASE_DOWNCOUNTER; i++){
    Timebase_DownCounter_Reset(i);
  }
}
    1892:	08 95       	ret

00001894 <Timebase_Reset>:



void Timebase_Reset(void){
  #ifdef TIMEBASE_UPCOUNTER
  Timebase_UpCounter_Reset_All();
    1894:	0e 94 36 09 	call	0x126c	; 0x126c <Timebase_UpCounter_Reset_All>
  #endif
  #ifdef TIMEBASE_DOWNCOUNTER
  Timebase_DownCounter_Reset_All();
    1898:	0e 94 3a 0c 	call	0x1874	; 0x1874 <Timebase_DownCounter_Reset_All>
  #endif
}
    189c:	08 95       	ret

0000189e <Timebase_Init>:

void Timebase_Init(uint16_t UpdateRateHz){
    189e:	0f 93       	push	r16
    18a0:	1f 93       	push	r17
    18a2:	8c 01       	movw	r16, r24
  Timebase_Struct_Init();
    18a4:	0e 94 24 03 	call	0x648	; 0x648 <Timebase_Struct_Init>
  Timebase_Timer_Config(UpdateRateHz);
    18a8:	c8 01       	movw	r24, r16
    18aa:	0e 94 af 03 	call	0x75e	; 0x75e <Timebase_Timer_Config>
  Timebase_Reset();
    18ae:	0e 94 4a 0c 	call	0x1894	; 0x1894 <Timebase_Reset>
}
    18b2:	1f 91       	pop	r17
    18b4:	0f 91       	pop	r16
    18b6:	08 95       	ret

000018b8 <Timebase_Main_Loop_Executables>:

void Timebase_Main_Loop_Executables(void){
  #ifdef TIMEBASE_UPCOUNTER
  Timebase_UpCounter_Update_All();
    18b8:	0e 94 32 09 	call	0x1264	; 0x1264 <Timebase_UpCounter_Update_All>
  #endif
  #ifdef TIMEBASE_DOWNCOUNTER
  Timebase_DownCounter_Update_All();
    18bc:	0e 94 36 0c 	call	0x186c	; 0x186c <Timebase_DownCounter_Update_All>
  #endif
}
    18c0:	08 95       	ret

000018c2 <Timebase_ISR_Executables>:

void Timebase_ISR_Executables(void){
    18c2:	cf 93       	push	r28
    18c4:	df 93       	push	r29
  Timebase->Time.SubSeconds++;
    18c6:	c0 91 41 01 	lds	r28, 0x0141
    18ca:	d0 91 42 01 	lds	r29, 0x0142
    18ce:	88 85       	ldd	r24, Y+8	; 0x08
    18d0:	99 85       	ldd	r25, Y+9	; 0x09
    18d2:	aa 85       	ldd	r26, Y+10	; 0x0a
    18d4:	bb 85       	ldd	r27, Y+11	; 0x0b
    18d6:	01 96       	adiw	r24, 0x01	; 1
    18d8:	a1 1d       	adc	r26, r1
    18da:	b1 1d       	adc	r27, r1
    18dc:	88 87       	std	Y+8, r24	; 0x08
    18de:	99 87       	std	Y+9, r25	; 0x09
    18e0:	aa 87       	std	Y+10, r26	; 0x0a
    18e2:	bb 87       	std	Y+11, r27	; 0x0b
  TCNT0  = Timebase->Time.OVFUpdateValue;
    18e4:	8b 81       	ldd	r24, Y+3	; 0x03
    18e6:	86 bd       	out	0x26, r24	; 38
  if((Timebase->Time.SubSeconds % Timebase->Config.UpdateRate) == 0){
    18e8:	68 85       	ldd	r22, Y+8	; 0x08
    18ea:	79 85       	ldd	r23, Y+9	; 0x09
    18ec:	8a 85       	ldd	r24, Y+10	; 0x0a
    18ee:	9b 85       	ldd	r25, Y+11	; 0x0b
    18f0:	29 81       	ldd	r18, Y+1	; 0x01
    18f2:	3a 81       	ldd	r19, Y+2	; 0x02
    18f4:	40 e0       	ldi	r20, 0x00	; 0
    18f6:	50 e0       	ldi	r21, 0x00	; 0
    18f8:	0e 94 8b 14 	call	0x2916	; 0x2916 <__udivmodsi4>
    18fc:	61 15       	cp	r22, r1
    18fe:	71 05       	cpc	r23, r1
    1900:	81 05       	cpc	r24, r1
    1902:	91 05       	cpc	r25, r1
    1904:	91 f4       	brne	.+36     	; 0x192a <Timebase_ISR_Executables+0x68>
    Timebase->Time.Seconds++;
    1906:	8c 85       	ldd	r24, Y+12	; 0x0c
    1908:	9d 85       	ldd	r25, Y+13	; 0x0d
    190a:	ae 85       	ldd	r26, Y+14	; 0x0e
    190c:	bf 85       	ldd	r27, Y+15	; 0x0f
    190e:	01 96       	adiw	r24, 0x01	; 1
    1910:	a1 1d       	adc	r26, r1
    1912:	b1 1d       	adc	r27, r1
    1914:	8c 87       	std	Y+12, r24	; 0x0c
    1916:	9d 87       	std	Y+13, r25	; 0x0d
    1918:	ae 87       	std	Y+14, r26	; 0x0e
    191a:	bf 87       	std	Y+15, r27	; 0x0f


//Token Functions
#ifdef TIMEBASE_TOKEN_FUNCTIONS
uint8_t Timebase_Token_Executing(void){
  return Timebase->ActiveTokens;
    191c:	89 8d       	ldd	r24, Y+25	; 0x19
  Timebase->Time.SubSeconds++;
  TCNT0  = Timebase->Time.OVFUpdateValue;
  if((Timebase->Time.SubSeconds % Timebase->Config.UpdateRate) == 0){
    Timebase->Time.Seconds++;
	#ifdef TIMEBASE_TOKEN_FUNCTIONS
    if(Timebase_Token_Executing() == 0){
    191e:	88 23       	and	r24, r24
    1920:	21 f4       	brne	.+8      	; 0x192a <Timebase_ISR_Executables+0x68>
      Timebase->Time.SubSeconds = 0;
    1922:	18 86       	std	Y+8, r1	; 0x08
    1924:	19 86       	std	Y+9, r1	; 0x09
    1926:	1a 86       	std	Y+10, r1	; 0x0a
    1928:	1b 86       	std	Y+11, r1	; 0x0b
    }
	#endif
  }
}
    192a:	df 91       	pop	r29
    192c:	cf 91       	pop	r28
    192e:	08 95       	ret

00001930 <__vector_16>:

ISR(TIMER0_OVF_vect){
    1930:	1f 92       	push	r1
    1932:	0f 92       	push	r0
    1934:	0f b6       	in	r0, 0x3f	; 63
    1936:	0f 92       	push	r0
    1938:	11 24       	eor	r1, r1
    193a:	2f 93       	push	r18
    193c:	3f 93       	push	r19
    193e:	4f 93       	push	r20
    1940:	5f 93       	push	r21
    1942:	6f 93       	push	r22
    1944:	7f 93       	push	r23
    1946:	8f 93       	push	r24
    1948:	9f 93       	push	r25
    194a:	af 93       	push	r26
    194c:	bf 93       	push	r27
    194e:	ef 93       	push	r30
    1950:	ff 93       	push	r31
  Timebase_ISR_Executables();
    1952:	0e 94 61 0c 	call	0x18c2	; 0x18c2 <Timebase_ISR_Executables>
    1956:	ff 91       	pop	r31
    1958:	ef 91       	pop	r30
    195a:	bf 91       	pop	r27
    195c:	af 91       	pop	r26
    195e:	9f 91       	pop	r25
    1960:	8f 91       	pop	r24
    1962:	7f 91       	pop	r23
    1964:	6f 91       	pop	r22
    1966:	5f 91       	pop	r21
    1968:	4f 91       	pop	r20
    196a:	3f 91       	pop	r19
    196c:	2f 91       	pop	r18
    196e:	0f 90       	pop	r0
    1970:	0f be       	out	0x3f, r0	; 63
    1972:	0f 90       	pop	r0
    1974:	1f 90       	pop	r1
    1976:	18 95       	reti

00001978 <ADC_Struct_Init>:

ADC_t ADC_type;
ADC_t *ADCC;

void ADC_Struct_Init(void){
  ADCC=&ADC_type;
    1978:	8f e7       	ldi	r24, 0x7F	; 127
    197a:	91 e0       	ldi	r25, 0x01	; 1
    197c:	90 93 af 01 	sts	0x01AF, r25
    1980:	80 93 ae 01 	sts	0x01AE, r24
  ADCC->Calibration.Vdd=MCU_SUPPLY_VOLTAGE_VDD;
    1984:	84 ee       	ldi	r24, 0xE4	; 228
    1986:	9c e0       	ldi	r25, 0x0C	; 12
    1988:	90 93 80 01 	sts	0x0180, r25
    198c:	80 93 7f 01 	sts	0x017F, r24
  ADCC->Calibration.VdivFact=VOLTAGE_ADC_CHNL_VOLTAGE_DIVIDER;
    1990:	86 e3       	ldi	r24, 0x36	; 54
    1992:	91 e0       	ldi	r25, 0x01	; 1
    1994:	90 93 84 01 	sts	0x0184, r25
    1998:	80 93 83 01 	sts	0x0183, r24
  ADCC->Calibration.TempFact=80;
    199c:	80 e5       	ldi	r24, 0x50	; 80
    199e:	90 e0       	ldi	r25, 0x00	; 0
    19a0:	90 93 86 01 	sts	0x0186, r25
    19a4:	80 93 85 01 	sts	0x0185, r24
  ADCC->Calibration.VrefInt=ADC_INTERNAL_VOLTAGE_REFERENCE;
    19a8:	8c e4       	ldi	r24, 0x4C	; 76
    19aa:	94 e0       	ldi	r25, 0x04	; 4
    19ac:	90 93 82 01 	sts	0x0182, r25
    19b0:	80 93 81 01 	sts	0x0181, r24
  ADCC->Calibration.IDSensePUR=IRON_ID_SENSE_PULL_UP_RESISTOR;
    19b4:	80 e1       	ldi	r24, 0x10	; 16
    19b6:	97 e2       	ldi	r25, 0x27	; 39
    19b8:	90 93 88 01 	sts	0x0188, r25
    19bc:	80 93 87 01 	sts	0x0187, r24
  ADCC->Calibration.IDSensePDR=IRON_ID_SENSE_PULL_DOWN_RESISTOR;
    19c0:	8c e5       	ldi	r24, 0x5C	; 92
    19c2:	92 e1       	ldi	r25, 0x12	; 18
    19c4:	90 93 8a 01 	sts	0x018A, r25
    19c8:	80 93 89 01 	sts	0x0189, r24
  ADCC->Calibration.IDSenseShunt=CURRENT_SESNSE_ADC_SHUNT_RESISTOR;
    19cc:	84 e6       	ldi	r24, 0x64	; 100
    19ce:	90 e0       	ldi	r25, 0x00	; 0
    19d0:	90 93 8c 01 	sts	0x018C, r25
    19d4:	80 93 8b 01 	sts	0x018B, r24
  ADCC->Calibration.MaxPower=360;
    19d8:	88 e6       	ldi	r24, 0x68	; 104
    19da:	91 e0       	ldi	r25, 0x01	; 1
    19dc:	a0 e0       	ldi	r26, 0x00	; 0
    19de:	b0 e0       	ldi	r27, 0x00	; 0
    19e0:	80 93 8d 01 	sts	0x018D, r24
    19e4:	90 93 8e 01 	sts	0x018E, r25
    19e8:	a0 93 8f 01 	sts	0x018F, r26
    19ec:	b0 93 90 01 	sts	0x0190, r27
  ADCC->Channels.TSense=TEMPERATURE_SENSE_ADC_CHANNEL;
    19f0:	10 92 91 01 	sts	0x0191, r1
  ADCC->Channels.VSense=VOLTAGE_SENSE_ADC_CHANNEL;
    19f4:	82 e0       	ldi	r24, 0x02	; 2
    19f6:	80 93 92 01 	sts	0x0192, r24
  ADCC->Channels.ISense=CURRENT_SENSE_ADC_CHANNEL;
    19fa:	81 e0       	ldi	r24, 0x01	; 1
    19fc:	80 93 93 01 	sts	0x0193, r24
  ADCC->Channels.IronID=IRON_ID_SENSE_ADC_CHANNEL;
    1a00:	85 e0       	ldi	r24, 0x05	; 5
    1a02:	80 93 94 01 	sts	0x0194, r24
  ADCC->NSamples.Dummy=DISCARD_ADC_SAMPLE;
    1a06:	84 e0       	ldi	r24, 0x04	; 4
    1a08:	80 93 95 01 	sts	0x0195, r24
  ADCC->NSamples.TSense=TEMPERATURE_SENSE_ADC_SAMPLE;
    1a0c:	80 e8       	ldi	r24, 0x80	; 128
    1a0e:	80 93 96 01 	sts	0x0196, r24
  ADCC->NSamples.VSense=VOLTAGE_SENSE_ADC_SAMPLE;
    1a12:	80 e1       	ldi	r24, 0x10	; 16
    1a14:	80 93 97 01 	sts	0x0197, r24
  ADCC->NSamples.ISense=CURRENT_SESNSE_ADC_SAMPLE;
    1a18:	80 93 98 01 	sts	0x0198, r24
  ADCC->NSamples.IronID=IRON_ID_SENSE_ADC_SAMPLE;
    1a1c:	80 93 99 01 	sts	0x0199, r24
  ADCC->Result.Temporary=0;
    1a20:	10 92 9a 01 	sts	0x019A, r1
    1a24:	10 92 9b 01 	sts	0x019B, r1
    1a28:	10 92 9c 01 	sts	0x019C, r1
    1a2c:	10 92 9d 01 	sts	0x019D, r1
  ADCC->Result.TSense=0;
    1a30:	10 92 9f 01 	sts	0x019F, r1
    1a34:	10 92 9e 01 	sts	0x019E, r1
  ADCC->Result.VSense=0;
    1a38:	10 92 a1 01 	sts	0x01A1, r1
    1a3c:	10 92 a0 01 	sts	0x01A0, r1
  ADCC->Result.ISense=0;
    1a40:	10 92 a3 01 	sts	0x01A3, r1
    1a44:	10 92 a2 01 	sts	0x01A2, r1
  ADCC->Result.IronID=0;
    1a48:	10 92 a9 01 	sts	0x01A9, r1
    1a4c:	10 92 a8 01 	sts	0x01A8, r1
  ADCC->Result.PSense=0;
    1a50:	10 92 a4 01 	sts	0x01A4, r1
    1a54:	10 92 a5 01 	sts	0x01A5, r1
    1a58:	10 92 a6 01 	sts	0x01A6, r1
    1a5c:	10 92 a7 01 	sts	0x01A7, r1
  ADCC->Result.PowBar=0;
    1a60:	10 92 ab 01 	sts	0x01AB, r1
    1a64:	10 92 aa 01 	sts	0x01AA, r1
  ADCC->Result.DispTemp=0;
    1a68:	10 92 ad 01 	sts	0x01AD, r1
    1a6c:	10 92 ac 01 	sts	0x01AC, r1
}
    1a70:	08 95       	ret

00001a72 <ADC_Read>:
    LPF_Set_Alpha(3, DISP_TEMPERATURE_LPF_ALPHA);
  #endif
}

uint16_t ADC_Read(uint8_t channel){
  uint8_t admux=(0xC0|channel);
    1a72:	98 2f       	mov	r25, r24
    1a74:	90 6c       	ori	r25, 0xC0	; 192
  if(ADMUX!=admux){ADMUX=admux;}
    1a76:	80 91 7c 00 	lds	r24, 0x007C
    1a7a:	89 17       	cp	r24, r25
    1a7c:	11 f0       	breq	.+4      	; 0x1a82 <ADC_Read+0x10>
    1a7e:	90 93 7c 00 	sts	0x007C, r25
  ADCSRA|=(1<<ADSC);
    1a82:	80 91 7a 00 	lds	r24, 0x007A
    1a86:	80 64       	ori	r24, 0x40	; 64
    1a88:	80 93 7a 00 	sts	0x007A, r24
  while(!(ADCSRA &(1<<ADIF)));
    1a8c:	80 91 7a 00 	lds	r24, 0x007A
    1a90:	84 ff       	sbrs	r24, 4
    1a92:	fc cf       	rjmp	.-8      	; 0x1a8c <ADC_Read+0x1a>
  ADCSRA|=(1<<ADIF);
    1a94:	80 91 7a 00 	lds	r24, 0x007A
    1a98:	80 61       	ori	r24, 0x10	; 16
    1a9a:	80 93 7a 00 	sts	0x007A, r24
  return ADCW;
    1a9e:	20 91 78 00 	lds	r18, 0x0078
    1aa2:	30 91 79 00 	lds	r19, 0x0079
}
    1aa6:	c9 01       	movw	r24, r18
    1aa8:	08 95       	ret

00001aaa <ADC_Read_Chennel_Average>:

void ADC_Read_Chennel_Average(uint8_t channel, uint8_t nsamples){
    1aaa:	bf 92       	push	r11
    1aac:	cf 92       	push	r12
    1aae:	df 92       	push	r13
    1ab0:	ef 92       	push	r14
    1ab2:	ff 92       	push	r15
    1ab4:	0f 93       	push	r16
    1ab6:	1f 93       	push	r17
    1ab8:	18 2f       	mov	r17, r24
    1aba:	b6 2e       	mov	r11, r22
    1abc:	00 e0       	ldi	r16, 0x00	; 0
    1abe:	04 c0       	rjmp	.+8      	; 0x1ac8 <ADC_Read_Chennel_Average+0x1e>
  uint32_t sum=0;
  for(uint8_t i=0;i<ADCC->NSamples.Dummy;i++){
    uint16_t dummy=ADC_Read(channel);
    1ac0:	81 2f       	mov	r24, r17
    1ac2:	0e 94 39 0d 	call	0x1a72	; 0x1a72 <ADC_Read>
  return ADCW;
}

void ADC_Read_Chennel_Average(uint8_t channel, uint8_t nsamples){
  uint32_t sum=0;
  for(uint8_t i=0;i<ADCC->NSamples.Dummy;i++){
    1ac6:	0f 5f       	subi	r16, 0xFF	; 255
    1ac8:	e0 91 ae 01 	lds	r30, 0x01AE
    1acc:	f0 91 af 01 	lds	r31, 0x01AF
    1ad0:	86 89       	ldd	r24, Z+22	; 0x16
    1ad2:	08 17       	cp	r16, r24
    1ad4:	a8 f3       	brcs	.-22     	; 0x1ac0 <ADC_Read_Chennel_Average+0x16>
    1ad6:	00 e0       	ldi	r16, 0x00	; 0
    1ad8:	cc 24       	eor	r12, r12
    1ada:	dd 24       	eor	r13, r13
    1adc:	76 01       	movw	r14, r12
    1ade:	0a c0       	rjmp	.+20     	; 0x1af4 <ADC_Read_Chennel_Average+0x4a>
    uint16_t dummy=ADC_Read(channel);
    dummy=0xFF;
  }
  for(uint8_t i=0;i<nsamples;i++){
    sum+=ADC_Read(channel);
    1ae0:	81 2f       	mov	r24, r17
    1ae2:	0e 94 39 0d 	call	0x1a72	; 0x1a72 <ADC_Read>
    1ae6:	a0 e0       	ldi	r26, 0x00	; 0
    1ae8:	b0 e0       	ldi	r27, 0x00	; 0
    1aea:	c8 0e       	add	r12, r24
    1aec:	d9 1e       	adc	r13, r25
    1aee:	ea 1e       	adc	r14, r26
    1af0:	fb 1e       	adc	r15, r27
  uint32_t sum=0;
  for(uint8_t i=0;i<ADCC->NSamples.Dummy;i++){
    uint16_t dummy=ADC_Read(channel);
    dummy=0xFF;
  }
  for(uint8_t i=0;i<nsamples;i++){
    1af2:	0f 5f       	subi	r16, 0xFF	; 255
    1af4:	0b 15       	cp	r16, r11
    1af6:	a0 f3       	brcs	.-24     	; 0x1ae0 <ADC_Read_Chennel_Average+0x36>
    sum+=ADC_Read(channel);
  }
  sum/=nsamples;
  ADCC->Result.Temporary=sum;
    1af8:	00 91 ae 01 	lds	r16, 0x01AE
    1afc:	10 91 af 01 	lds	r17, 0x01AF
    1b00:	2b 2d       	mov	r18, r11
    1b02:	30 e0       	ldi	r19, 0x00	; 0
    1b04:	40 e0       	ldi	r20, 0x00	; 0
    1b06:	50 e0       	ldi	r21, 0x00	; 0
    1b08:	c7 01       	movw	r24, r14
    1b0a:	b6 01       	movw	r22, r12
    1b0c:	0e 94 8b 14 	call	0x2916	; 0x2916 <__udivmodsi4>
    1b10:	f8 01       	movw	r30, r16
    1b12:	23 8f       	std	Z+27, r18	; 0x1b
    1b14:	34 8f       	std	Z+28, r19	; 0x1c
    1b16:	45 8f       	std	Z+29, r20	; 0x1d
    1b18:	56 8f       	std	Z+30, r21	; 0x1e
}
    1b1a:	1f 91       	pop	r17
    1b1c:	0f 91       	pop	r16
    1b1e:	ff 90       	pop	r15
    1b20:	ef 90       	pop	r14
    1b22:	df 90       	pop	r13
    1b24:	cf 90       	pop	r12
    1b26:	bf 90       	pop	r11
    1b28:	08 95       	ret

00001b2a <ADC_Read_Iron_ID_Resistor>:
  #ifdef CURRENT_SENSE_LPF_ALPHA
    ADCC->Result.ISense=(uint16_t)LPF_Get_Filtered_Value(2, ADCC->Result.ISense);
  #endif
}

void ADC_Read_Iron_ID_Resistor(void){ // Result in Ohms
    1b2a:	8f 92       	push	r8
    1b2c:	9f 92       	push	r9
    1b2e:	af 92       	push	r10
    1b30:	bf 92       	push	r11
    1b32:	cf 92       	push	r12
    1b34:	df 92       	push	r13
    1b36:	ef 92       	push	r14
    1b38:	ff 92       	push	r15
    1b3a:	0f 93       	push	r16
    1b3c:	1f 93       	push	r17
  uint32_t iron_id_channel_voltage_div_output_mv=0,R_equivalent=0;
  ADC_Read_Chennel_Average(ADCC->Channels.IronID, ADCC->NSamples.IronID);
    1b3e:	e0 91 ae 01 	lds	r30, 0x01AE
    1b42:	f0 91 af 01 	lds	r31, 0x01AF
    1b46:	85 89       	ldd	r24, Z+21	; 0x15
    1b48:	62 8d       	ldd	r22, Z+26	; 0x1a
    1b4a:	0e 94 55 0d 	call	0x1aaa	; 0x1aaa <ADC_Read_Chennel_Average>
  ADCC->Result.Temporary*=ADCC->Calibration.VrefInt;
    1b4e:	80 90 ae 01 	lds	r8, 0x01AE
    1b52:	90 90 af 01 	lds	r9, 0x01AF
  ADCC->Result.Temporary/=1024;    // mV
    1b56:	f4 01       	movw	r30, r8
    1b58:	62 81       	ldd	r22, Z+2	; 0x02
    1b5a:	73 81       	ldd	r23, Z+3	; 0x03
    1b5c:	80 e0       	ldi	r24, 0x00	; 0
    1b5e:	90 e0       	ldi	r25, 0x00	; 0
    1b60:	23 8d       	ldd	r18, Z+27	; 0x1b
    1b62:	34 8d       	ldd	r19, Z+28	; 0x1c
    1b64:	45 8d       	ldd	r20, Z+29	; 0x1d
    1b66:	56 8d       	ldd	r21, Z+30	; 0x1e
    1b68:	0e 94 58 14 	call	0x28b0	; 0x28b0 <__mulsi3>
    1b6c:	7b 01       	movw	r14, r22
    1b6e:	8c 01       	movw	r16, r24
    1b70:	8a e0       	ldi	r24, 0x0A	; 10
    1b72:	16 95       	lsr	r17
    1b74:	07 95       	ror	r16
    1b76:	f7 94       	ror	r15
    1b78:	e7 94       	ror	r14
    1b7a:	8a 95       	dec	r24
    1b7c:	d1 f7       	brne	.-12     	; 0x1b72 <ADC_Read_Iron_ID_Resistor+0x48>
  iron_id_channel_voltage_div_output_mv=ADCC->Result.Temporary;
  ADCC->Result.Temporary*=ADCC->Calibration.IDSensePUR; // Vout*Pull_up_resistor
    1b7e:	f4 01       	movw	r30, r8
    1b80:	20 85       	ldd	r18, Z+8	; 0x08
    1b82:	31 85       	ldd	r19, Z+9	; 0x09
    1b84:	40 e0       	ldi	r20, 0x00	; 0
    1b86:	50 e0       	ldi	r21, 0x00	; 0
    1b88:	c8 01       	movw	r24, r16
    1b8a:	b7 01       	movw	r22, r14
    1b8c:	0e 94 58 14 	call	0x28b0	; 0x28b0 <__mulsi3>
  ADCC->Result.Temporary/=(ADCC->Calibration.Vdd-iron_id_channel_voltage_div_output_mv); 
    1b90:	f4 01       	movw	r30, r8
    1b92:	20 81       	ld	r18, Z
    1b94:	31 81       	ldd	r19, Z+1	; 0x01
    1b96:	40 e0       	ldi	r20, 0x00	; 0
    1b98:	50 e0       	ldi	r21, 0x00	; 0
    1b9a:	2e 19       	sub	r18, r14
    1b9c:	3f 09       	sbc	r19, r15
    1b9e:	40 0b       	sbc	r20, r16
    1ba0:	51 0b       	sbc	r21, r17
    1ba2:	0e 94 8b 14 	call	0x2916	; 0x2916 <__udivmodsi4>
    1ba6:	79 01       	movw	r14, r18
    1ba8:	8a 01       	movw	r16, r20
  // Req=Vout*Pull_up_resistor/(Vin-Vout)
  R_equivalent=ADCC->Result.Temporary;
  ADCC->Result.Temporary*=ADCC->Calibration.IDSensePDR; // Req*Pull_down_resistor
    1baa:	f4 01       	movw	r30, r8
    1bac:	a2 84       	ldd	r10, Z+10	; 0x0a
    1bae:	b3 84       	ldd	r11, Z+11	; 0x0b
    1bb0:	cc 24       	eor	r12, r12
    1bb2:	dd 24       	eor	r13, r13
    1bb4:	c8 01       	movw	r24, r16
    1bb6:	b7 01       	movw	r22, r14
    1bb8:	a6 01       	movw	r20, r12
    1bba:	95 01       	movw	r18, r10
    1bbc:	0e 94 58 14 	call	0x28b0	; 0x28b0 <__mulsi3>
  ADCC->Result.Temporary/=(ADCC->Calibration.IDSensePDR-R_equivalent);
    1bc0:	ae 18       	sub	r10, r14
    1bc2:	bf 08       	sbc	r11, r15
    1bc4:	c0 0a       	sbc	r12, r16
    1bc6:	d1 0a       	sbc	r13, r17
    1bc8:	a6 01       	movw	r20, r12
    1bca:	95 01       	movw	r18, r10
    1bcc:	0e 94 8b 14 	call	0x2916	; 0x2916 <__udivmodsi4>
    1bd0:	f4 01       	movw	r30, r8
    1bd2:	23 8f       	std	Z+27, r18	; 0x1b
    1bd4:	34 8f       	std	Z+28, r19	; 0x1c
    1bd6:	45 8f       	std	Z+29, r20	; 0x1d
    1bd8:	56 8f       	std	Z+30, r21	; 0x1e
  // Rsense=Req*Pull_down_resistor/ (Pull_down_resistor-Req)
  ADCC->Result.IronID=(uint16_t)ADCC->Result.Temporary;
    1bda:	c9 01       	movw	r24, r18
    1bdc:	21 a7       	std	Z+41, r18	; 0x29
    1bde:	92 a7       	std	Z+42, r25	; 0x2a
}
    1be0:	1f 91       	pop	r17
    1be2:	0f 91       	pop	r16
    1be4:	ff 90       	pop	r15
    1be6:	ef 90       	pop	r14
    1be8:	df 90       	pop	r13
    1bea:	cf 90       	pop	r12
    1bec:	bf 90       	pop	r11
    1bee:	af 90       	pop	r10
    1bf0:	9f 90       	pop	r9
    1bf2:	8f 90       	pop	r8
    1bf4:	08 95       	ret

00001bf6 <ADC_Read_Power_Draw>:

void ADC_Read_Power_Draw(void){         // Result in mW 
    1bf6:	8f 92       	push	r8
    1bf8:	9f 92       	push	r9
    1bfa:	af 92       	push	r10
    1bfc:	bf 92       	push	r11
    1bfe:	cf 92       	push	r12
    1c00:	df 92       	push	r13
    1c02:	ef 92       	push	r14
    1c04:	ff 92       	push	r15
    1c06:	0f 93       	push	r16
    1c08:	1f 93       	push	r17
  uint32_t vin=ADCC->Result.VSense;
    1c0a:	80 90 ae 01 	lds	r8, 0x01AE
    1c0e:	90 90 af 01 	lds	r9, 0x01AF
    1c12:	f4 01       	movw	r30, r8
    1c14:	a1 a0       	ldd	r10, Z+33	; 0x21
    1c16:	b2 a0       	ldd	r11, Z+34	; 0x22
    1c18:	cc 24       	eor	r12, r12
    1c1a:	dd 24       	eor	r13, r13
  vin/=100;                             // mV/100
  uint32_t curr=ADCC->Result.ISense/10; // mA/10
    1c1c:	83 a1       	ldd	r24, Z+35	; 0x23
    1c1e:	94 a1       	ldd	r25, Z+36	; 0x24
    1c20:	6a e0       	ldi	r22, 0x0A	; 10
    1c22:	70 e0       	ldi	r23, 0x00	; 0
    1c24:	0e 94 77 14 	call	0x28ee	; 0x28ee <__udivmodhi4>
    1c28:	7b 01       	movw	r14, r22
    1c2a:	00 e0       	ldi	r16, 0x00	; 0
    1c2c:	10 e0       	ldi	r17, 0x00	; 0
  curr*=vin;
  ADCC->Result.PSense=curr;
    1c2e:	c6 01       	movw	r24, r12
    1c30:	b5 01       	movw	r22, r10
    1c32:	24 e6       	ldi	r18, 0x64	; 100
    1c34:	30 e0       	ldi	r19, 0x00	; 0
    1c36:	40 e0       	ldi	r20, 0x00	; 0
    1c38:	50 e0       	ldi	r21, 0x00	; 0
    1c3a:	0e 94 8b 14 	call	0x2916	; 0x2916 <__udivmodsi4>
    1c3e:	c8 01       	movw	r24, r16
    1c40:	b7 01       	movw	r22, r14
    1c42:	0e 94 58 14 	call	0x28b0	; 0x28b0 <__mulsi3>
    1c46:	f4 01       	movw	r30, r8
    1c48:	65 a3       	std	Z+37, r22	; 0x25
    1c4a:	76 a3       	std	Z+38, r23	; 0x26
    1c4c:	87 a3       	std	Z+39, r24	; 0x27
    1c4e:	90 a7       	std	Z+40, r25	; 0x28
}
    1c50:	1f 91       	pop	r17
    1c52:	0f 91       	pop	r16
    1c54:	ff 90       	pop	r15
    1c56:	ef 90       	pop	r14
    1c58:	df 90       	pop	r13
    1c5a:	cf 90       	pop	r12
    1c5c:	bf 90       	pop	r11
    1c5e:	af 90       	pop	r10
    1c60:	9f 90       	pop	r9
    1c62:	8f 90       	pop	r8
    1c64:	08 95       	ret

00001c66 <ADC_Calculate_Power_Bar>:

void ADC_Calculate_Power_Bar(void){
    1c66:	cf 93       	push	r28
    1c68:	df 93       	push	r29
  uint32_t bar_val=ADCC->Result.PSense*100; //max 100%
    1c6a:	c0 91 ae 01 	lds	r28, 0x01AE
    1c6e:	d0 91 af 01 	lds	r29, 0x01AF
    1c72:	6d a1       	ldd	r22, Y+37	; 0x25
    1c74:	7e a1       	ldd	r23, Y+38	; 0x26
    1c76:	8f a1       	ldd	r24, Y+39	; 0x27
    1c78:	98 a5       	ldd	r25, Y+40	; 0x28
    1c7a:	24 e6       	ldi	r18, 0x64	; 100
    1c7c:	30 e0       	ldi	r19, 0x00	; 0
    1c7e:	40 e0       	ldi	r20, 0x00	; 0
    1c80:	50 e0       	ldi	r21, 0x00	; 0
    1c82:	0e 94 58 14 	call	0x28b0	; 0x28b0 <__mulsi3>
  bar_val/=ADCC->Calibration.MaxPower;
  ADCC->Result.PowBar=(uint16_t)bar_val;
    1c86:	2e 85       	ldd	r18, Y+14	; 0x0e
    1c88:	3f 85       	ldd	r19, Y+15	; 0x0f
    1c8a:	48 89       	ldd	r20, Y+16	; 0x10
    1c8c:	59 89       	ldd	r21, Y+17	; 0x11
    1c8e:	0e 94 8b 14 	call	0x2916	; 0x2916 <__udivmodsi4>
    1c92:	3c a7       	std	Y+44, r19	; 0x2c
    1c94:	2b a7       	std	Y+43, r18	; 0x2b
  if(ADCC->Result.PowBar>100){
    1c96:	25 36       	cpi	r18, 0x65	; 101
    1c98:	31 05       	cpc	r19, r1
    1c9a:	20 f0       	brcs	.+8      	; 0x1ca4 <ADC_Calculate_Power_Bar+0x3e>
    ADCC->Result.PowBar=100;
    1c9c:	84 e6       	ldi	r24, 0x64	; 100
    1c9e:	90 e0       	ldi	r25, 0x00	; 0
    1ca0:	9c a7       	std	Y+44, r25	; 0x2c
    1ca2:	8b a7       	std	Y+43, r24	; 0x2b
  }
}
    1ca4:	df 91       	pop	r29
    1ca6:	cf 91       	pop	r28
    1ca8:	08 95       	ret

00001caa <ADC_Set_Max_Power>:

void ADC_Set_Max_Power(uint32_t power){
  ADCC->Calibration.MaxPower=power;
    1caa:	e0 91 ae 01 	lds	r30, 0x01AE
    1cae:	f0 91 af 01 	lds	r31, 0x01AF
    1cb2:	66 87       	std	Z+14, r22	; 0x0e
    1cb4:	77 87       	std	Z+15, r23	; 0x0f
    1cb6:	80 8b       	std	Z+16, r24	; 0x10
    1cb8:	91 8b       	std	Z+17, r25	; 0x11
}
    1cba:	08 95       	ret

00001cbc <ADC_Set_Temperature_Factor>:

void ADC_Set_Temperature_Factor(uint16_t factor){
  ADCC->Calibration.TempFact=factor;
    1cbc:	e0 91 ae 01 	lds	r30, 0x01AE
    1cc0:	f0 91 af 01 	lds	r31, 0x01AF
    1cc4:	97 83       	std	Z+7, r25	; 0x07
    1cc6:	86 83       	std	Z+6, r24	; 0x06
}
    1cc8:	08 95       	ret

00001cca <ADC_Get_Temperature>:

uint16_t ADC_Get_Temperature(void){
    1cca:	e0 91 ae 01 	lds	r30, 0x01AE
    1cce:	f0 91 af 01 	lds	r31, 0x01AF
  return ADCC->Result.TSense;
}
    1cd2:	87 8d       	ldd	r24, Z+31	; 0x1f
    1cd4:	90 a1       	ldd	r25, Z+32	; 0x20
    1cd6:	08 95       	ret

00001cd8 <ADC_Get_Input_Voltage>:

uint16_t ADC_Get_Input_Voltage(void){
    1cd8:	e0 91 ae 01 	lds	r30, 0x01AE
    1cdc:	f0 91 af 01 	lds	r31, 0x01AF
  return ADCC->Result.VSense;
}
    1ce0:	81 a1       	ldd	r24, Z+33	; 0x21
    1ce2:	92 a1       	ldd	r25, Z+34	; 0x22
    1ce4:	08 95       	ret

00001ce6 <ADC_Get_Current>:

uint16_t ADC_Get_Current(void){
    1ce6:	e0 91 ae 01 	lds	r30, 0x01AE
    1cea:	f0 91 af 01 	lds	r31, 0x01AF
  return ADCC->Result.ISense;
}
    1cee:	83 a1       	ldd	r24, Z+35	; 0x23
    1cf0:	94 a1       	ldd	r25, Z+36	; 0x24
    1cf2:	08 95       	ret

00001cf4 <ADC_Get_Iron_ID_Resistor>:

uint16_t ADC_Get_Iron_ID_Resistor(void){
    1cf4:	e0 91 ae 01 	lds	r30, 0x01AE
    1cf8:	f0 91 af 01 	lds	r31, 0x01AF
  return ADCC->Result.IronID;
}
    1cfc:	81 a5       	ldd	r24, Z+41	; 0x29
    1cfe:	92 a5       	ldd	r25, Z+42	; 0x2a
    1d00:	08 95       	ret

00001d02 <ADC_Get_Power_Draw>:

uint16_t ADC_Get_Power_Draw(void){
    1d02:	e0 91 ae 01 	lds	r30, 0x01AE
    1d06:	f0 91 af 01 	lds	r31, 0x01AF
  return ADCC->Result.PSense;
}
    1d0a:	85 a1       	ldd	r24, Z+37	; 0x25
    1d0c:	96 a1       	ldd	r25, Z+38	; 0x26
    1d0e:	08 95       	ret

00001d10 <ADC_Get_Power_Bar>:

uint16_t ADC_Get_Power_Bar(void){
    1d10:	e0 91 ae 01 	lds	r30, 0x01AE
    1d14:	f0 91 af 01 	lds	r31, 0x01AF
  return ADCC->Result.PowBar;
}
    1d18:	83 a5       	ldd	r24, Z+43	; 0x2b
    1d1a:	94 a5       	ldd	r25, Z+44	; 0x2c
    1d1c:	08 95       	ret

00001d1e <ADC_Get_Display_Temperature>:

uint16_t ADC_Get_Display_Temperature(void){
    1d1e:	e0 91 ae 01 	lds	r30, 0x01AE
    1d22:	f0 91 af 01 	lds	r31, 0x01AF
  return ADCC->Result.DispTemp;
    1d26:	85 a5       	ldd	r24, Z+45	; 0x2d
    1d28:	96 a5       	ldd	r25, Z+46	; 0x2e
    1d2a:	08 95       	ret

00001d2c <ADC_Read_Current>:
  #ifdef VOLTAGE_SENSE_LPF_ALPHA
    ADCC->Result.VSense=(uint16_t)LPF_Get_Filtered_Value(1, ADCC->Result.VSense);
  #endif
}

void ADC_Read_Current(void){       // Result in mA
    1d2c:	0f 93       	push	r16
    1d2e:	1f 93       	push	r17
  ADC_Read_Chennel_Average(ADCC->Channels.ISense, ADCC->NSamples.ISense);
    1d30:	e0 91 ae 01 	lds	r30, 0x01AE
    1d34:	f0 91 af 01 	lds	r31, 0x01AF
    1d38:	84 89       	ldd	r24, Z+20	; 0x14
    1d3a:	61 8d       	ldd	r22, Z+25	; 0x19
    1d3c:	0e 94 55 0d 	call	0x1aaa	; 0x1aaa <ADC_Read_Chennel_Average>
  ADCC->Result.Temporary*=ADCC->Calibration.VrefInt;
    1d40:	00 91 ae 01 	lds	r16, 0x01AE
    1d44:	10 91 af 01 	lds	r17, 0x01AF
  ADCC->Result.Temporary/=1024;    // mV
  ADCC->Result.Temporary*=1000;    // uV
    1d48:	f8 01       	movw	r30, r16
    1d4a:	62 81       	ldd	r22, Z+2	; 0x02
    1d4c:	73 81       	ldd	r23, Z+3	; 0x03
    1d4e:	80 e0       	ldi	r24, 0x00	; 0
    1d50:	90 e0       	ldi	r25, 0x00	; 0
    1d52:	23 8d       	ldd	r18, Z+27	; 0x1b
    1d54:	34 8d       	ldd	r19, Z+28	; 0x1c
    1d56:	45 8d       	ldd	r20, Z+29	; 0x1d
    1d58:	56 8d       	ldd	r21, Z+30	; 0x1e
    1d5a:	0e 94 58 14 	call	0x28b0	; 0x28b0 <__mulsi3>
    1d5e:	2a e0       	ldi	r18, 0x0A	; 10
    1d60:	96 95       	lsr	r25
    1d62:	87 95       	ror	r24
    1d64:	77 95       	ror	r23
    1d66:	67 95       	ror	r22
    1d68:	2a 95       	dec	r18
    1d6a:	d1 f7       	brne	.-12     	; 0x1d60 <ADC_Read_Current+0x34>
    1d6c:	28 ee       	ldi	r18, 0xE8	; 232
    1d6e:	33 e0       	ldi	r19, 0x03	; 3
    1d70:	40 e0       	ldi	r20, 0x00	; 0
    1d72:	50 e0       	ldi	r21, 0x00	; 0
    1d74:	0e 94 58 14 	call	0x28b0	; 0x28b0 <__mulsi3>
  ADCC->Result.Temporary/=ADCC->Calibration.IDSenseShunt; // uV/mOhm=mA
    1d78:	f8 01       	movw	r30, r16
    1d7a:	24 85       	ldd	r18, Z+12	; 0x0c
    1d7c:	35 85       	ldd	r19, Z+13	; 0x0d
    1d7e:	40 e0       	ldi	r20, 0x00	; 0
    1d80:	50 e0       	ldi	r21, 0x00	; 0
    1d82:	0e 94 8b 14 	call	0x2916	; 0x2916 <__udivmodsi4>
    1d86:	f8 01       	movw	r30, r16
    1d88:	23 8f       	std	Z+27, r18	; 0x1b
    1d8a:	34 8f       	std	Z+28, r19	; 0x1c
    1d8c:	45 8f       	std	Z+29, r20	; 0x1d
    1d8e:	56 8f       	std	Z+30, r21	; 0x1e
  ADCC->Result.ISense=(uint16_t)ADCC->Result.Temporary;
    1d90:	a9 01       	movw	r20, r18
    1d92:	34 a3       	std	Z+36, r19	; 0x24
    1d94:	23 a3       	std	Z+35, r18	; 0x23
  #ifdef CURRENT_SENSE_LPF_ALPHA
    ADCC->Result.ISense=(uint16_t)LPF_Get_Filtered_Value(2, ADCC->Result.ISense);
    1d96:	60 e0       	ldi	r22, 0x00	; 0
    1d98:	70 e0       	ldi	r23, 0x00	; 0
    1d9a:	82 e0       	ldi	r24, 0x02	; 2
    1d9c:	0e 94 ab 10 	call	0x2156	; 0x2156 <LPF_Get_Filtered_Value>
    1da0:	f8 01       	movw	r30, r16
    1da2:	74 a3       	std	Z+36, r23	; 0x24
    1da4:	63 a3       	std	Z+35, r22	; 0x23
  #endif
}
    1da6:	1f 91       	pop	r17
    1da8:	0f 91       	pop	r16
    1daa:	08 95       	ret

00001dac <ADC_Read_Input_Voltage>:
  #ifdef DISP_TEMPERATURE_LPF_ALPHA
    ADCC->Result.DispTemp=(uint16_t)LPF_Get_Filtered_Value(3, ADCC->Result.TSense);
  #endif
}

void ADC_Read_Input_Voltage(void){ // Result in mV
    1dac:	0f 93       	push	r16
    1dae:	1f 93       	push	r17
  ADC_Read_Chennel_Average(ADCC->Channels.VSense, ADCC->NSamples.VSense);
    1db0:	e0 91 ae 01 	lds	r30, 0x01AE
    1db4:	f0 91 af 01 	lds	r31, 0x01AF
    1db8:	83 89       	ldd	r24, Z+19	; 0x13
    1dba:	60 8d       	ldd	r22, Z+24	; 0x18
    1dbc:	0e 94 55 0d 	call	0x1aaa	; 0x1aaa <ADC_Read_Chennel_Average>
  ADCC->Result.Temporary*=ADCC->Calibration.VrefInt;
    1dc0:	00 91 ae 01 	lds	r16, 0x01AE
    1dc4:	10 91 af 01 	lds	r17, 0x01AF
  ADCC->Result.Temporary/=1024;    // mV
    1dc8:	f8 01       	movw	r30, r16
    1dca:	62 81       	ldd	r22, Z+2	; 0x02
    1dcc:	73 81       	ldd	r23, Z+3	; 0x03
    1dce:	80 e0       	ldi	r24, 0x00	; 0
    1dd0:	90 e0       	ldi	r25, 0x00	; 0
    1dd2:	23 8d       	ldd	r18, Z+27	; 0x1b
    1dd4:	34 8d       	ldd	r19, Z+28	; 0x1c
    1dd6:	45 8d       	ldd	r20, Z+29	; 0x1d
    1dd8:	56 8d       	ldd	r21, Z+30	; 0x1e
    1dda:	0e 94 58 14 	call	0x28b0	; 0x28b0 <__mulsi3>
    1dde:	3a e0       	ldi	r19, 0x0A	; 10
    1de0:	96 95       	lsr	r25
    1de2:	87 95       	ror	r24
    1de4:	77 95       	ror	r23
    1de6:	67 95       	ror	r22
    1de8:	3a 95       	dec	r19
    1dea:	d1 f7       	brne	.-12     	; 0x1de0 <ADC_Read_Input_Voltage+0x34>
  ADCC->Result.Temporary*=ADCC->Calibration.VdivFact;
  ADCC->Result.Temporary/=10;      // mV*voltage_divider_factorx10/10=Input_mV
    1dec:	f8 01       	movw	r30, r16
    1dee:	24 81       	ldd	r18, Z+4	; 0x04
    1df0:	35 81       	ldd	r19, Z+5	; 0x05
    1df2:	40 e0       	ldi	r20, 0x00	; 0
    1df4:	50 e0       	ldi	r21, 0x00	; 0
    1df6:	0e 94 58 14 	call	0x28b0	; 0x28b0 <__mulsi3>
    1dfa:	2a e0       	ldi	r18, 0x0A	; 10
    1dfc:	30 e0       	ldi	r19, 0x00	; 0
    1dfe:	40 e0       	ldi	r20, 0x00	; 0
    1e00:	50 e0       	ldi	r21, 0x00	; 0
    1e02:	0e 94 8b 14 	call	0x2916	; 0x2916 <__udivmodsi4>
    1e06:	f8 01       	movw	r30, r16
    1e08:	23 8f       	std	Z+27, r18	; 0x1b
    1e0a:	34 8f       	std	Z+28, r19	; 0x1c
    1e0c:	45 8f       	std	Z+29, r20	; 0x1d
    1e0e:	56 8f       	std	Z+30, r21	; 0x1e
  ADCC->Result.VSense=(uint16_t)ADCC->Result.Temporary;
    1e10:	a9 01       	movw	r20, r18
    1e12:	32 a3       	std	Z+34, r19	; 0x22
    1e14:	21 a3       	std	Z+33, r18	; 0x21
  #ifdef VOLTAGE_SENSE_LPF_ALPHA
    ADCC->Result.VSense=(uint16_t)LPF_Get_Filtered_Value(1, ADCC->Result.VSense);
    1e16:	60 e0       	ldi	r22, 0x00	; 0
    1e18:	70 e0       	ldi	r23, 0x00	; 0
    1e1a:	81 e0       	ldi	r24, 0x01	; 1
    1e1c:	0e 94 ab 10 	call	0x2156	; 0x2156 <LPF_Get_Filtered_Value>
    1e20:	f8 01       	movw	r30, r16
    1e22:	72 a3       	std	Z+34, r23	; 0x22
    1e24:	61 a3       	std	Z+33, r22	; 0x21
  #endif
}
    1e26:	1f 91       	pop	r17
    1e28:	0f 91       	pop	r16
    1e2a:	08 95       	ret

00001e2c <ADC_Read_Temperature>:
  }
  sum/=nsamples;
  ADCC->Result.Temporary=sum;
}

void ADC_Read_Temperature(void){
    1e2c:	0f 93       	push	r16
    1e2e:	1f 93       	push	r17
  ADC_Read_Chennel_Average(ADCC->Channels.TSense, ADCC->NSamples.TSense);
    1e30:	e0 91 ae 01 	lds	r30, 0x01AE
    1e34:	f0 91 af 01 	lds	r31, 0x01AF
    1e38:	82 89       	ldd	r24, Z+18	; 0x12
    1e3a:	67 89       	ldd	r22, Z+23	; 0x17
    1e3c:	0e 94 55 0d 	call	0x1aaa	; 0x1aaa <ADC_Read_Chennel_Average>
  ADCC->Result.Temporary*=ADCC->Calibration.TempFact;
    1e40:	00 91 ae 01 	lds	r16, 0x01AE
    1e44:	10 91 af 01 	lds	r17, 0x01AF
  ADCC->Result.Temporary/=100;
    1e48:	f8 01       	movw	r30, r16
    1e4a:	66 81       	ldd	r22, Z+6	; 0x06
    1e4c:	77 81       	ldd	r23, Z+7	; 0x07
    1e4e:	80 e0       	ldi	r24, 0x00	; 0
    1e50:	90 e0       	ldi	r25, 0x00	; 0
    1e52:	23 8d       	ldd	r18, Z+27	; 0x1b
    1e54:	34 8d       	ldd	r19, Z+28	; 0x1c
    1e56:	45 8d       	ldd	r20, Z+29	; 0x1d
    1e58:	56 8d       	ldd	r21, Z+30	; 0x1e
    1e5a:	0e 94 58 14 	call	0x28b0	; 0x28b0 <__mulsi3>
    1e5e:	24 e6       	ldi	r18, 0x64	; 100
    1e60:	30 e0       	ldi	r19, 0x00	; 0
    1e62:	40 e0       	ldi	r20, 0x00	; 0
    1e64:	50 e0       	ldi	r21, 0x00	; 0
    1e66:	0e 94 8b 14 	call	0x2916	; 0x2916 <__udivmodsi4>
    1e6a:	f8 01       	movw	r30, r16
    1e6c:	23 8f       	std	Z+27, r18	; 0x1b
    1e6e:	34 8f       	std	Z+28, r19	; 0x1c
    1e70:	45 8f       	std	Z+29, r20	; 0x1d
    1e72:	56 8f       	std	Z+30, r21	; 0x1e
  if(ADCC->Result.Temporary<0){ADCC->Result.Temporary=0;}
  ADCC->Result.TSense=(uint16_t)ADCC->Result.Temporary;
    1e74:	a9 01       	movw	r20, r18
    1e76:	30 a3       	std	Z+32, r19	; 0x20
    1e78:	27 8f       	std	Z+31, r18	; 0x1f
  #ifdef TEMPERATURE_SENSE_LPF_ALPHA
    ADCC->Result.TSense=(uint16_t)LPF_Get_Filtered_Value(0, ADCC->Result.TSense);
    1e7a:	60 e0       	ldi	r22, 0x00	; 0
    1e7c:	70 e0       	ldi	r23, 0x00	; 0
    1e7e:	80 e0       	ldi	r24, 0x00	; 0
    1e80:	0e 94 ab 10 	call	0x2156	; 0x2156 <LPF_Get_Filtered_Value>
    1e84:	f8 01       	movw	r30, r16
    1e86:	70 a3       	std	Z+32, r23	; 0x20
    1e88:	67 8f       	std	Z+31, r22	; 0x1f
  #endif
  
  #ifdef DISP_TEMPERATURE_LPF_ALPHA
    ADCC->Result.DispTemp=(uint16_t)LPF_Get_Filtered_Value(3, ADCC->Result.TSense);
    1e8a:	00 91 ae 01 	lds	r16, 0x01AE
    1e8e:	10 91 af 01 	lds	r17, 0x01AF
    1e92:	f8 01       	movw	r30, r16
    1e94:	47 8d       	ldd	r20, Z+31	; 0x1f
    1e96:	50 a1       	ldd	r21, Z+32	; 0x20
    1e98:	60 e0       	ldi	r22, 0x00	; 0
    1e9a:	70 e0       	ldi	r23, 0x00	; 0
    1e9c:	83 e0       	ldi	r24, 0x03	; 3
    1e9e:	0e 94 ab 10 	call	0x2156	; 0x2156 <LPF_Get_Filtered_Value>
    1ea2:	f8 01       	movw	r30, r16
    1ea4:	76 a7       	std	Z+46, r23	; 0x2e
    1ea6:	65 a7       	std	Z+45, r22	; 0x2d
  #endif
}
    1ea8:	1f 91       	pop	r17
    1eaa:	0f 91       	pop	r16
    1eac:	08 95       	ret

00001eae <ADC_Init>:
  ADCC->Result.PowBar=0;
  ADCC->Result.DispTemp=0;
}

void ADC_Init(void){
  ADC_Struct_Init();
    1eae:	0e 94 bc 0c 	call	0x1978	; 0x1978 <ADC_Struct_Init>
  ADMUX  =(1<<REFS0)|(1<<REFS1);
    1eb2:	80 ec       	ldi	r24, 0xC0	; 192
    1eb4:	80 93 7c 00 	sts	0x007C, r24
  ADCSRA =(1<<ADPS1)|(1<<ADPS2);
    1eb8:	ea e7       	ldi	r30, 0x7A	; 122
    1eba:	f0 e0       	ldi	r31, 0x00	; 0
    1ebc:	86 e0       	ldi	r24, 0x06	; 6
    1ebe:	80 83       	st	Z, r24
  ADCSRA|=(1<<ADEN);
    1ec0:	80 81       	ld	r24, Z
    1ec2:	80 68       	ori	r24, 0x80	; 128
    1ec4:	80 83       	st	Z, r24
  LPF_Init();
    1ec6:	0e 94 09 11 	call	0x2212	; 0x2212 <LPF_Init>
  
  #ifdef TEMPERATURE_SENSE_LPF_ALPHA
    LPF_Set_Alpha(0, TEMPERATURE_SENSE_LPF_ALPHA);
    1eca:	80 e0       	ldi	r24, 0x00	; 0
    1ecc:	6a e5       	ldi	r22, 0x5A	; 90
    1ece:	0e 94 91 10 	call	0x2122	; 0x2122 <LPF_Set_Alpha>
  #endif
  
  #ifdef VOLTAGE_SENSE_LPF_ALPHA
    LPF_Set_Alpha(1, VOLTAGE_SENSE_LPF_ALPHA);
    1ed2:	81 e0       	ldi	r24, 0x01	; 1
    1ed4:	6a e5       	ldi	r22, 0x5A	; 90
    1ed6:	0e 94 91 10 	call	0x2122	; 0x2122 <LPF_Set_Alpha>
  #endif
  
  #ifdef CURRENT_SENSE_LPF_ALPHA
    LPF_Set_Alpha(2, CURRENT_SENSE_LPF_ALPHA);
    1eda:	82 e0       	ldi	r24, 0x02	; 2
    1edc:	66 e4       	ldi	r22, 0x46	; 70
    1ede:	0e 94 91 10 	call	0x2122	; 0x2122 <LPF_Set_Alpha>
  #endif
  
  #ifdef DISP_TEMPERATURE_LPF_ALPHA
    LPF_Set_Alpha(3, DISP_TEMPERATURE_LPF_ALPHA);
    1ee2:	83 e0       	ldi	r24, 0x03	; 3
    1ee4:	62 e3       	ldi	r22, 0x32	; 50
    1ee6:	0e 94 91 10 	call	0x2122	; 0x2122 <LPF_Set_Alpha>
  #endif
}
    1eea:	08 95       	ret

00001eec <PWM_Struct_Init>:

heater_t HEATER_type;
heater_t *HEATER;

void PWM_Struct_Init(void){
  HEATER = &HEATER_type;
    1eec:	82 eb       	ldi	r24, 0xB2	; 178
    1eee:	91 e0       	ldi	r25, 0x01	; 1
    1ef0:	90 93 b1 01 	sts	0x01B1, r25
    1ef4:	80 93 b0 01 	sts	0x01B0, r24
  HEATER->PWM.MaxValue = PWM_MAX_VAL;
    1ef8:	87 e5       	ldi	r24, 0x57	; 87
    1efa:	92 e0       	ldi	r25, 0x02	; 2
    1efc:	90 93 b6 01 	sts	0x01B6, r25
    1f00:	80 93 b5 01 	sts	0x01B5, r24
  HEATER->PWM.TopValue = ICR1_TOP_VAL;
    1f04:	88 e5       	ldi	r24, 0x58	; 88
    1f06:	92 e0       	ldi	r25, 0x02	; 2
    1f08:	90 93 b4 01 	sts	0x01B4, r25
    1f0c:	80 93 b3 01 	sts	0x01B3, r24
  HEATER->PWM.CurrentValue = OCR1_INIT_VAL;
    1f10:	10 92 b8 01 	sts	0x01B8, r1
    1f14:	10 92 b7 01 	sts	0x01B7, r1
  HEATER->Status = 0;
    1f18:	10 92 b2 01 	sts	0x01B2, r1
}
    1f1c:	08 95       	ret

00001f1e <PWM_Reg_Init>:
  
void PWM_Reg_Init(void){
  DDRB   |= (1<<1);
    1f1e:	21 9a       	sbi	0x04, 1	; 4
  PORTB  &=~(1<<1);
    1f20:	29 98       	cbi	0x05, 1	; 5
  TCCR1A  = (1<<COM1A1)|(1<<WGM11);
    1f22:	e0 e8       	ldi	r30, 0x80	; 128
    1f24:	f0 e0       	ldi	r31, 0x00	; 0
    1f26:	82 e8       	ldi	r24, 0x82	; 130
    1f28:	80 83       	st	Z, r24
  TCCR1B  = (1<<CS10)|(1<<WGM12)|(1<<WGM13);
    1f2a:	89 e1       	ldi	r24, 0x19	; 25
    1f2c:	80 93 81 00 	sts	0x0081, r24
  ICR1    = ICR1_TOP_VAL;
    1f30:	88 e5       	ldi	r24, 0x58	; 88
    1f32:	92 e0       	ldi	r25, 0x02	; 2
    1f34:	90 93 87 00 	sts	0x0087, r25
    1f38:	80 93 86 00 	sts	0x0086, r24
  OCR1A   = OCR1_INIT_VAL;
    1f3c:	10 92 89 00 	sts	0x0089, r1
    1f40:	10 92 88 00 	sts	0x0088, r1
  TCCR1A &=~(1<<COM1A1);
    1f44:	80 81       	ld	r24, Z
    1f46:	8f 77       	andi	r24, 0x7F	; 127
    1f48:	80 83       	st	Z, r24
}
    1f4a:	08 95       	ret

00001f4c <Iron_Heater_On>:


void Iron_Heater_On(uint16_t val){
    1f4c:	9c 01       	movw	r18, r24
  if( (HEATER->Status == 0) && (val > 0) ){
    1f4e:	e0 91 b0 01 	lds	r30, 0x01B0
    1f52:	f0 91 b1 01 	lds	r31, 0x01B1
    1f56:	80 81       	ld	r24, Z
    1f58:	88 23       	and	r24, r24
    1f5a:	b1 f4       	brne	.+44     	; 0x1f88 <Iron_Heater_On+0x3c>
    1f5c:	21 15       	cp	r18, r1
    1f5e:	31 05       	cpc	r19, r1
    1f60:	99 f0       	breq	.+38     	; 0x1f88 <Iron_Heater_On+0x3c>
    1f62:	43 81       	ldd	r20, Z+3	; 0x03
    1f64:	54 81       	ldd	r21, Z+4	; 0x04
    1f66:	42 17       	cp	r20, r18
    1f68:	53 07       	cpc	r21, r19
    1f6a:	08 f4       	brcc	.+2      	; 0x1f6e <Iron_Heater_On+0x22>
    1f6c:	9a 01       	movw	r18, r20
    if(val > HEATER->PWM.MaxValue){
	  val = HEATER->PWM.MaxValue;
	}
    OCR1A   = val;
    1f6e:	30 93 89 00 	sts	0x0089, r19
    1f72:	20 93 88 00 	sts	0x0088, r18
    TCCR1A |= (1<<COM1A1);
    1f76:	80 91 80 00 	lds	r24, 0x0080
    1f7a:	80 68       	ori	r24, 0x80	; 128
    1f7c:	80 93 80 00 	sts	0x0080, r24
	HEATER->PWM.CurrentValue = val;
    1f80:	36 83       	std	Z+6, r19	; 0x06
    1f82:	25 83       	std	Z+5, r18	; 0x05
	HEATER->Status = 1;
    1f84:	81 e0       	ldi	r24, 0x01	; 1
    1f86:	80 83       	st	Z, r24
    1f88:	08 95       	ret

00001f8a <Iron_Heater_Off>:
  }
}


void Iron_Heater_Off(void){
  if(HEATER->Status == 1){
    1f8a:	e0 91 b0 01 	lds	r30, 0x01B0
    1f8e:	f0 91 b1 01 	lds	r31, 0x01B1
    1f92:	80 81       	ld	r24, Z
    1f94:	81 30       	cpi	r24, 0x01	; 1
    1f96:	61 f4       	brne	.+24     	; 0x1fb0 <Iron_Heater_Off+0x26>
    TCCR1A &=~(1<<COM1A1);
    1f98:	80 91 80 00 	lds	r24, 0x0080
    1f9c:	8f 77       	andi	r24, 0x7F	; 127
    1f9e:	80 93 80 00 	sts	0x0080, r24
	OCR1A   = 0;
    1fa2:	10 92 89 00 	sts	0x0089, r1
    1fa6:	10 92 88 00 	sts	0x0088, r1
	HEATER->PWM.CurrentValue = 0;
    1faa:	16 82       	std	Z+6, r1	; 0x06
    1fac:	15 82       	std	Z+5, r1	; 0x05
	HEATER->Status = 0;
    1fae:	10 82       	st	Z, r1
    1fb0:	08 95       	ret

00001fb2 <Iron_Set_Max_PWM>:
}



void Iron_Set_Max_PWM(uint16_t val){
  HEATER->PWM.MaxValue = val;
    1fb2:	e0 91 b0 01 	lds	r30, 0x01B0
    1fb6:	f0 91 b1 01 	lds	r31, 0x01B1
    1fba:	94 83       	std	Z+4, r25	; 0x04
    1fbc:	83 83       	std	Z+3, r24	; 0x03
}
    1fbe:	08 95       	ret

00001fc0 <Iron_Set_Max_PWM_Div_Fact>:

void Iron_Set_Max_PWM_Div_Fact(uint16_t val){
    1fc0:	bc 01       	movw	r22, r24
  HEATER->PWM.MaxValue = PWM_MAX_VAL/val;
    1fc2:	e0 91 b0 01 	lds	r30, 0x01B0
    1fc6:	f0 91 b1 01 	lds	r31, 0x01B1
    1fca:	87 e5       	ldi	r24, 0x57	; 87
    1fcc:	92 e0       	ldi	r25, 0x02	; 2
    1fce:	0e 94 77 14 	call	0x28ee	; 0x28ee <__udivmodhi4>
    1fd2:	74 83       	std	Z+4, r23	; 0x04
    1fd4:	63 83       	std	Z+3, r22	; 0x03
}
    1fd6:	08 95       	ret

00001fd8 <Iron_Set_Max_PWM_Full>:

void Iron_Set_Max_PWM_Full(void){
  HEATER->PWM.MaxValue = PWM_MAX_VAL;
    1fd8:	e0 91 b0 01 	lds	r30, 0x01B0
    1fdc:	f0 91 b1 01 	lds	r31, 0x01B1
    1fe0:	87 e5       	ldi	r24, 0x57	; 87
    1fe2:	92 e0       	ldi	r25, 0x02	; 2
    1fe4:	94 83       	std	Z+4, r25	; 0x04
    1fe6:	83 83       	std	Z+3, r24	; 0x03
}
    1fe8:	08 95       	ret

00001fea <Iron_Set_Max_PWM_Half>:

void Iron_Set_Max_PWM_Half(void){
  HEATER->PWM.MaxValue = PWM_MAX_VAL/2;
    1fea:	e0 91 b0 01 	lds	r30, 0x01B0
    1fee:	f0 91 b1 01 	lds	r31, 0x01B1
    1ff2:	8b e2       	ldi	r24, 0x2B	; 43
    1ff4:	91 e0       	ldi	r25, 0x01	; 1
    1ff6:	94 83       	std	Z+4, r25	; 0x04
    1ff8:	83 83       	std	Z+3, r24	; 0x03
}
    1ffa:	08 95       	ret

00001ffc <Iron_Set_Max_PWM_Quarter>:

void Iron_Set_Max_PWM_Quarter(void){
  HEATER->PWM.MaxValue = PWM_MAX_VAL/4;
    1ffc:	e0 91 b0 01 	lds	r30, 0x01B0
    2000:	f0 91 b1 01 	lds	r31, 0x01B1
    2004:	85 e9       	ldi	r24, 0x95	; 149
    2006:	90 e0       	ldi	r25, 0x00	; 0
    2008:	94 83       	std	Z+4, r25	; 0x04
    200a:	83 83       	std	Z+3, r24	; 0x03
}
    200c:	08 95       	ret

0000200e <Iron_Set_Max_PWM_One_Eighth>:

void Iron_Set_Max_PWM_One_Eighth(void){
  HEATER->PWM.MaxValue = PWM_MAX_VAL/8;
    200e:	e0 91 b0 01 	lds	r30, 0x01B0
    2012:	f0 91 b1 01 	lds	r31, 0x01B1
    2016:	8a e4       	ldi	r24, 0x4A	; 74
    2018:	90 e0       	ldi	r25, 0x00	; 0
    201a:	94 83       	std	Z+4, r25	; 0x04
    201c:	83 83       	std	Z+3, r24	; 0x03
}
    201e:	08 95       	ret

00002020 <Iron_Get_PWM>:

uint16_t Iron_Get_PWM(void){
    2020:	e0 91 b0 01 	lds	r30, 0x01B0
    2024:	f0 91 b1 01 	lds	r31, 0x01B1
  return HEATER->PWM.CurrentValue;
}
    2028:	85 81       	ldd	r24, Z+5	; 0x05
    202a:	96 81       	ldd	r25, Z+6	; 0x06
    202c:	08 95       	ret

0000202e <Iron_Get_Max_PWM>:


uint16_t Iron_Get_Max_PWM(void){
    202e:	e0 91 b0 01 	lds	r30, 0x01B0
    2032:	f0 91 b1 01 	lds	r31, 0x01B1
  return HEATER->PWM.MaxValue;
}
    2036:	83 81       	ldd	r24, Z+3	; 0x03
    2038:	94 81       	ldd	r25, Z+4	; 0x04
    203a:	08 95       	ret

0000203c <PWM_Init>:

heater_t HEATER_type;
heater_t *HEATER;

void PWM_Struct_Init(void){
  HEATER = &HEATER_type;
    203c:	82 eb       	ldi	r24, 0xB2	; 178
    203e:	91 e0       	ldi	r25, 0x01	; 1
    2040:	90 93 b1 01 	sts	0x01B1, r25
    2044:	80 93 b0 01 	sts	0x01B0, r24
  HEATER->PWM.MaxValue = PWM_MAX_VAL;
    2048:	87 e5       	ldi	r24, 0x57	; 87
    204a:	92 e0       	ldi	r25, 0x02	; 2
    204c:	90 93 b6 01 	sts	0x01B6, r25
    2050:	80 93 b5 01 	sts	0x01B5, r24
  HEATER->PWM.TopValue = ICR1_TOP_VAL;
    2054:	88 e5       	ldi	r24, 0x58	; 88
    2056:	92 e0       	ldi	r25, 0x02	; 2
    2058:	90 93 b4 01 	sts	0x01B4, r25
    205c:	80 93 b3 01 	sts	0x01B3, r24
  HEATER->PWM.CurrentValue = OCR1_INIT_VAL;
    2060:	10 92 b8 01 	sts	0x01B8, r1
    2064:	10 92 b7 01 	sts	0x01B7, r1
  HEATER->Status = 0;
    2068:	10 92 b2 01 	sts	0x01B2, r1



void PWM_Init(void){
  PWM_Struct_Init();
  PWM_Reg_Init();
    206c:	0e 94 8f 0f 	call	0x1f1e	; 0x1f1e <PWM_Reg_Init>
    2070:	08 95       	ret

00002072 <Iron_Heater_Control>:
  }
}


void Iron_Heater_Control(void){
  if(ADC_Get_Temperature()>ABSOLUTE_MAX_TEMP){
    2072:	0e 94 65 0e 	call	0x1cca	; 0x1cca <ADC_Get_Temperature>
    2076:	8d 57       	subi	r24, 0x7D	; 125
    2078:	91 40       	sbci	r25, 0x01	; 1
    207a:	18 f0       	brcs	.+6      	; 0x2082 <Iron_Heater_Control+0x10>
    Iron_Heater_Off();
    207c:	0e 94 c5 0f 	call	0x1f8a	; 0x1f8a <Iron_Heater_Off>
    2080:	08 95       	ret
  }else{
    Iron_Heater_On(PID_Get_Output_NonNegative());
    2082:	0e 94 48 13 	call	0x2690	; 0x2690 <PID_Get_Output_NonNegative>
    2086:	dc 01       	movw	r26, r24
    2088:	cb 01       	movw	r24, r22
    208a:	0e 94 a6 0f 	call	0x1f4c	; 0x1f4c <Iron_Heater_On>
    208e:	08 95       	ret

00002090 <LPF_Struct_Init>:

lpf_t LPF[NUMBER_OF_LPF];

void LPF_Struct_Init(void){
  for(uint8_t i=0; i<NUMBER_OF_LPF; i++){
    LPF[i].Alpha = 0;
    2090:	10 92 b9 01 	sts	0x01B9, r1
    LPF[i].Input = 0;
    2094:	10 92 ba 01 	sts	0x01BA, r1
    2098:	10 92 bb 01 	sts	0x01BB, r1
    209c:	10 92 bc 01 	sts	0x01BC, r1
    20a0:	10 92 bd 01 	sts	0x01BD, r1
	LPF[i].Output = 0;
    20a4:	10 92 be 01 	sts	0x01BE, r1
    20a8:	10 92 bf 01 	sts	0x01BF, r1
    20ac:	10 92 c0 01 	sts	0x01C0, r1
    20b0:	10 92 c1 01 	sts	0x01C1, r1

lpf_t LPF[NUMBER_OF_LPF];

void LPF_Struct_Init(void){
  for(uint8_t i=0; i<NUMBER_OF_LPF; i++){
    LPF[i].Alpha = 0;
    20b4:	10 92 c2 01 	sts	0x01C2, r1
    LPF[i].Input = 0;
    20b8:	10 92 c3 01 	sts	0x01C3, r1
    20bc:	10 92 c4 01 	sts	0x01C4, r1
    20c0:	10 92 c5 01 	sts	0x01C5, r1
    20c4:	10 92 c6 01 	sts	0x01C6, r1
	LPF[i].Output = 0;
    20c8:	10 92 c7 01 	sts	0x01C7, r1
    20cc:	10 92 c8 01 	sts	0x01C8, r1
    20d0:	10 92 c9 01 	sts	0x01C9, r1
    20d4:	10 92 ca 01 	sts	0x01CA, r1

lpf_t LPF[NUMBER_OF_LPF];

void LPF_Struct_Init(void){
  for(uint8_t i=0; i<NUMBER_OF_LPF; i++){
    LPF[i].Alpha = 0;
    20d8:	10 92 cb 01 	sts	0x01CB, r1
    LPF[i].Input = 0;
    20dc:	10 92 cc 01 	sts	0x01CC, r1
    20e0:	10 92 cd 01 	sts	0x01CD, r1
    20e4:	10 92 ce 01 	sts	0x01CE, r1
    20e8:	10 92 cf 01 	sts	0x01CF, r1
	LPF[i].Output = 0;
    20ec:	10 92 d0 01 	sts	0x01D0, r1
    20f0:	10 92 d1 01 	sts	0x01D1, r1
    20f4:	10 92 d2 01 	sts	0x01D2, r1
    20f8:	10 92 d3 01 	sts	0x01D3, r1

lpf_t LPF[NUMBER_OF_LPF];

void LPF_Struct_Init(void){
  for(uint8_t i=0; i<NUMBER_OF_LPF; i++){
    LPF[i].Alpha = 0;
    20fc:	10 92 d4 01 	sts	0x01D4, r1
    LPF[i].Input = 0;
    2100:	10 92 d5 01 	sts	0x01D5, r1
    2104:	10 92 d6 01 	sts	0x01D6, r1
    2108:	10 92 d7 01 	sts	0x01D7, r1
    210c:	10 92 d8 01 	sts	0x01D8, r1
	LPF[i].Output = 0;
    2110:	10 92 d9 01 	sts	0x01D9, r1
    2114:	10 92 da 01 	sts	0x01DA, r1
    2118:	10 92 db 01 	sts	0x01DB, r1
    211c:	10 92 dc 01 	sts	0x01DC, r1
  }
}
    2120:	08 95       	ret

00002122 <LPF_Set_Alpha>:

void LPF_Set_Alpha(uint8_t lpf_index, uint8_t val){
  LPF[lpf_index].Alpha = val;
    2122:	90 e0       	ldi	r25, 0x00	; 0
    2124:	fc 01       	movw	r30, r24
    2126:	23 e0       	ldi	r18, 0x03	; 3
    2128:	ee 0f       	add	r30, r30
    212a:	ff 1f       	adc	r31, r31
    212c:	2a 95       	dec	r18
    212e:	e1 f7       	brne	.-8      	; 0x2128 <LPF_Set_Alpha+0x6>
    2130:	e8 0f       	add	r30, r24
    2132:	f9 1f       	adc	r31, r25
    2134:	e7 54       	subi	r30, 0x47	; 71
    2136:	fe 4f       	sbci	r31, 0xFE	; 254
    2138:	60 83       	st	Z, r22
}
    213a:	08 95       	ret

0000213c <LPF_Get_Alpha>:

uint8_t LPF_Get_Alpha(uint8_t lpf_index){
    213c:	90 e0       	ldi	r25, 0x00	; 0
    213e:	fc 01       	movw	r30, r24
    2140:	33 e0       	ldi	r19, 0x03	; 3
    2142:	ee 0f       	add	r30, r30
    2144:	ff 1f       	adc	r31, r31
    2146:	3a 95       	dec	r19
    2148:	e1 f7       	brne	.-8      	; 0x2142 <LPF_Get_Alpha+0x6>
    214a:	e8 0f       	add	r30, r24
    214c:	f9 1f       	adc	r31, r25
    214e:	e7 54       	subi	r30, 0x47	; 71
    2150:	fe 4f       	sbci	r31, 0xFE	; 254
  return LPF[lpf_index].Alpha;
}
    2152:	80 81       	ld	r24, Z
    2154:	08 95       	ret

00002156 <LPF_Get_Filtered_Value>:

int32_t LPF_Get_Filtered_Value(uint8_t lpf_index, int32_t val){
    2156:	6f 92       	push	r6
    2158:	7f 92       	push	r7
    215a:	8f 92       	push	r8
    215c:	9f 92       	push	r9
    215e:	af 92       	push	r10
    2160:	bf 92       	push	r11
    2162:	cf 92       	push	r12
    2164:	df 92       	push	r13
    2166:	ef 92       	push	r14
    2168:	ff 92       	push	r15
    216a:	0f 93       	push	r16
    216c:	1f 93       	push	r17
    216e:	5a 01       	movw	r10, r20
    2170:	6b 01       	movw	r12, r22
void LPF_Set_Alpha(uint8_t lpf_index, uint8_t val){
  LPF[lpf_index].Alpha = val;
}

uint8_t LPF_Get_Alpha(uint8_t lpf_index){
  return LPF[lpf_index].Alpha;
    2172:	90 e0       	ldi	r25, 0x00	; 0
}

int32_t LPF_Get_Filtered_Value(uint8_t lpf_index, int32_t val){
  int32_t tmp1=LPF_Get_Alpha(lpf_index);
    2174:	4c 01       	movw	r8, r24
    2176:	73 e0       	ldi	r23, 0x03	; 3
    2178:	88 0c       	add	r8, r8
    217a:	99 1c       	adc	r9, r9
    217c:	7a 95       	dec	r23
    217e:	e1 f7       	brne	.-8      	; 0x2178 <LPF_Get_Filtered_Value+0x22>
    2180:	88 0e       	add	r8, r24
    2182:	99 1e       	adc	r9, r25
    2184:	89 eb       	ldi	r24, 0xB9	; 185
    2186:	91 e0       	ldi	r25, 0x01	; 1
    2188:	88 0e       	add	r8, r24
    218a:	99 1e       	adc	r9, r25
    218c:	f4 01       	movw	r30, r8
    218e:	20 81       	ld	r18, Z
    2190:	30 e0       	ldi	r19, 0x00	; 0
    2192:	40 e0       	ldi	r20, 0x00	; 0
    2194:	50 e0       	ldi	r21, 0x00	; 0
  tmp1*=val;
  int32_t tmp2=100;
  tmp2-=LPF_Get_Alpha(lpf_index);
    2196:	64 e6       	ldi	r22, 0x64	; 100
    2198:	e6 2e       	mov	r14, r22
    219a:	f1 2c       	mov	r15, r1
    219c:	01 2d       	mov	r16, r1
    219e:	11 2d       	mov	r17, r1
    21a0:	e2 1a       	sub	r14, r18
    21a2:	f3 0a       	sbc	r15, r19
    21a4:	04 0b       	sbc	r16, r20
    21a6:	15 0b       	sbc	r17, r21
  tmp2*=LPF[lpf_index].Output ;
  LPF[lpf_index].Output = tmp1 + tmp2;
  LPF[lpf_index].Output/=100;
    21a8:	c6 01       	movw	r24, r12
    21aa:	b5 01       	movw	r22, r10
    21ac:	0e 94 58 14 	call	0x28b0	; 0x28b0 <__mulsi3>
    21b0:	5b 01       	movw	r10, r22
    21b2:	6c 01       	movw	r12, r24
    21b4:	45 e0       	ldi	r20, 0x05	; 5
    21b6:	64 2e       	mov	r6, r20
    21b8:	71 2c       	mov	r7, r1
    21ba:	68 0c       	add	r6, r8
    21bc:	79 1c       	adc	r7, r9
    21be:	f4 01       	movw	r30, r8
    21c0:	25 81       	ldd	r18, Z+5	; 0x05
    21c2:	36 81       	ldd	r19, Z+6	; 0x06
    21c4:	47 81       	ldd	r20, Z+7	; 0x07
    21c6:	50 85       	ldd	r21, Z+8	; 0x08
    21c8:	c8 01       	movw	r24, r16
    21ca:	b7 01       	movw	r22, r14
    21cc:	0e 94 58 14 	call	0x28b0	; 0x28b0 <__mulsi3>
    21d0:	a6 0e       	add	r10, r22
    21d2:	b7 1e       	adc	r11, r23
    21d4:	c8 1e       	adc	r12, r24
    21d6:	d9 1e       	adc	r13, r25
    21d8:	c6 01       	movw	r24, r12
    21da:	b5 01       	movw	r22, r10
    21dc:	24 e6       	ldi	r18, 0x64	; 100
    21de:	30 e0       	ldi	r19, 0x00	; 0
    21e0:	40 e0       	ldi	r20, 0x00	; 0
    21e2:	50 e0       	ldi	r21, 0x00	; 0
    21e4:	0e 94 ad 14 	call	0x295a	; 0x295a <__divmodsi4>
    21e8:	ca 01       	movw	r24, r20
    21ea:	f4 01       	movw	r30, r8
    21ec:	25 83       	std	Z+5, r18	; 0x05
    21ee:	f3 01       	movw	r30, r6
    21f0:	31 83       	std	Z+1, r19	; 0x01
    21f2:	42 83       	std	Z+2, r20	; 0x02
    21f4:	93 83       	std	Z+3, r25	; 0x03
  return LPF[lpf_index].Output;
}
    21f6:	b9 01       	movw	r22, r18
    21f8:	1f 91       	pop	r17
    21fa:	0f 91       	pop	r16
    21fc:	ff 90       	pop	r15
    21fe:	ef 90       	pop	r14
    2200:	df 90       	pop	r13
    2202:	cf 90       	pop	r12
    2204:	bf 90       	pop	r11
    2206:	af 90       	pop	r10
    2208:	9f 90       	pop	r9
    220a:	8f 90       	pop	r8
    220c:	7f 90       	pop	r7
    220e:	6f 90       	pop	r6
    2210:	08 95       	ret

00002212 <LPF_Init>:

void LPF_Init(void){
  LPF_Struct_Init();
    2212:	0e 94 48 10 	call	0x2090	; 0x2090 <LPF_Struct_Init>
    2216:	08 95       	ret

00002218 <PID_Struct_Init>:

PID_t PID_type;
PID_t *PID;

void PID_Struct_Init(void){
  PID=&PID_type;
    2218:	8f ed       	ldi	r24, 0xDF	; 223
    221a:	91 e0       	ldi	r25, 0x01	; 1
    221c:	90 93 de 01 	sts	0x01DE, r25
    2220:	80 93 dd 01 	sts	0x01DD, r24
  PID->Input.Kp = 0;
    2224:	10 92 df 01 	sts	0x01DF, r1
    2228:	10 92 e0 01 	sts	0x01E0, r1
    222c:	10 92 e1 01 	sts	0x01E1, r1
    2230:	10 92 e2 01 	sts	0x01E2, r1
  PID->Input.Ki = 0;
    2234:	10 92 e3 01 	sts	0x01E3, r1
    2238:	10 92 e4 01 	sts	0x01E4, r1
    223c:	10 92 e5 01 	sts	0x01E5, r1
    2240:	10 92 e6 01 	sts	0x01E6, r1
  PID->Input.Kd = 0;
    2244:	10 92 e7 01 	sts	0x01E7, r1
    2248:	10 92 e8 01 	sts	0x01E8, r1
    224c:	10 92 e9 01 	sts	0x01E9, r1
    2250:	10 92 ea 01 	sts	0x01EA, r1
  PID->Input.SetPoint = 0;
    2254:	10 92 eb 01 	sts	0x01EB, r1
    2258:	10 92 ec 01 	sts	0x01EC, r1
    225c:	10 92 ed 01 	sts	0x01ED, r1
    2260:	10 92 ee 01 	sts	0x01EE, r1
  PID->Input.ProcessValue = 0;
    2264:	10 92 ef 01 	sts	0x01EF, r1
    2268:	10 92 f0 01 	sts	0x01F0, r1
    226c:	10 92 f1 01 	sts	0x01F1, r1
    2270:	10 92 f2 01 	sts	0x01F2, r1
  PID->Error.PError = 0;
    2274:	10 92 f3 01 	sts	0x01F3, r1
    2278:	10 92 f4 01 	sts	0x01F4, r1
    227c:	10 92 f5 01 	sts	0x01F5, r1
    2280:	10 92 f6 01 	sts	0x01F6, r1
  PID->Error.DError = 0;
    2284:	10 92 f7 01 	sts	0x01F7, r1
    2288:	10 92 f8 01 	sts	0x01F8, r1
    228c:	10 92 f9 01 	sts	0x01F9, r1
    2290:	10 92 fa 01 	sts	0x01FA, r1
  PID->Error.IError = 0;
    2294:	10 92 fb 01 	sts	0x01FB, r1
    2298:	10 92 fc 01 	sts	0x01FC, r1
    229c:	10 92 fd 01 	sts	0x01FD, r1
    22a0:	10 92 fe 01 	sts	0x01FE, r1
  PID->Error.IErrorLimit = PID_MAX_IERROR;
    22a4:	86 e9       	ldi	r24, 0x96	; 150
    22a6:	90 e0       	ldi	r25, 0x00	; 0
    22a8:	a0 e0       	ldi	r26, 0x00	; 0
    22aa:	b0 e0       	ldi	r27, 0x00	; 0
    22ac:	80 93 ff 01 	sts	0x01FF, r24
    22b0:	90 93 00 02 	sts	0x0200, r25
    22b4:	a0 93 01 02 	sts	0x0201, r26
    22b8:	b0 93 02 02 	sts	0x0202, r27
  PID->Error.LastError = 0;
    22bc:	10 92 03 02 	sts	0x0203, r1
    22c0:	10 92 04 02 	sts	0x0204, r1
    22c4:	10 92 05 02 	sts	0x0205, r1
    22c8:	10 92 06 02 	sts	0x0206, r1
  PID->Products.PError=0;
    22cc:	10 92 07 02 	sts	0x0207, r1
    22d0:	10 92 08 02 	sts	0x0208, r1
    22d4:	10 92 09 02 	sts	0x0209, r1
    22d8:	10 92 0a 02 	sts	0x020A, r1
  PID->Products.IError=0;
    22dc:	10 92 0b 02 	sts	0x020B, r1
    22e0:	10 92 0c 02 	sts	0x020C, r1
    22e4:	10 92 0d 02 	sts	0x020D, r1
    22e8:	10 92 0e 02 	sts	0x020E, r1
  PID->Products.DError=0;
    22ec:	10 92 0f 02 	sts	0x020F, r1
    22f0:	10 92 10 02 	sts	0x0210, r1
    22f4:	10 92 11 02 	sts	0x0211, r1
    22f8:	10 92 12 02 	sts	0x0212, r1
  PID->Output = 0;
    22fc:	10 92 13 02 	sts	0x0213, r1
    2300:	10 92 14 02 	sts	0x0214, r1
    2304:	10 92 15 02 	sts	0x0215, r1
    2308:	10 92 16 02 	sts	0x0216, r1
}
    230c:	08 95       	ret

0000230e <PID_Set_Kp>:


void PID_Set_Kp(signed long kp){
  PID->Input.Kp = kp;
    230e:	e0 91 dd 01 	lds	r30, 0x01DD
    2312:	f0 91 de 01 	lds	r31, 0x01DE
    2316:	60 83       	st	Z, r22
    2318:	71 83       	std	Z+1, r23	; 0x01
    231a:	82 83       	std	Z+2, r24	; 0x02
    231c:	93 83       	std	Z+3, r25	; 0x03
}
    231e:	08 95       	ret

00002320 <PID_Set_Ki>:

void PID_Set_Ki(signed long ki){
  PID->Input.Ki = ki;
    2320:	e0 91 dd 01 	lds	r30, 0x01DD
    2324:	f0 91 de 01 	lds	r31, 0x01DE
    2328:	64 83       	std	Z+4, r22	; 0x04
    232a:	75 83       	std	Z+5, r23	; 0x05
    232c:	86 83       	std	Z+6, r24	; 0x06
    232e:	97 83       	std	Z+7, r25	; 0x07
}
    2330:	08 95       	ret

00002332 <PID_Set_Kd>:

void PID_Set_Kd(signed long kd){
  PID->Input.Kd = kd;
    2332:	e0 91 dd 01 	lds	r30, 0x01DD
    2336:	f0 91 de 01 	lds	r31, 0x01DE
    233a:	60 87       	std	Z+8, r22	; 0x08
    233c:	71 87       	std	Z+9, r23	; 0x09
    233e:	82 87       	std	Z+10, r24	; 0x0a
    2340:	93 87       	std	Z+11, r25	; 0x0b
}
    2342:	08 95       	ret

00002344 <PID_Set_Constants>:

void PID_Set_Constants(signed long kp, signed long ki, signed long kd){
    2344:	ef 92       	push	r14
    2346:	ff 92       	push	r15
    2348:	0f 93       	push	r16
    234a:	1f 93       	push	r17
  PID->Output = 0;
}


void PID_Set_Kp(signed long kp){
  PID->Input.Kp = kp;
    234c:	e0 91 dd 01 	lds	r30, 0x01DD
    2350:	f0 91 de 01 	lds	r31, 0x01DE
    2354:	60 83       	st	Z, r22
    2356:	71 83       	std	Z+1, r23	; 0x01
    2358:	82 83       	std	Z+2, r24	; 0x02
    235a:	93 83       	std	Z+3, r25	; 0x03
}

void PID_Set_Ki(signed long ki){
  PID->Input.Ki = ki;
    235c:	24 83       	std	Z+4, r18	; 0x04
    235e:	35 83       	std	Z+5, r19	; 0x05
    2360:	46 83       	std	Z+6, r20	; 0x06
    2362:	57 83       	std	Z+7, r21	; 0x07
}

void PID_Set_Kd(signed long kd){
  PID->Input.Kd = kd;
    2364:	e0 86       	std	Z+8, r14	; 0x08
    2366:	f1 86       	std	Z+9, r15	; 0x09
    2368:	02 87       	std	Z+10, r16	; 0x0a
    236a:	13 87       	std	Z+11, r17	; 0x0b

void PID_Set_Constants(signed long kp, signed long ki, signed long kd){
  PID_Set_Kp(kp);
  PID_Set_Ki(ki);
  PID_Set_Kd(kd);
}
    236c:	1f 91       	pop	r17
    236e:	0f 91       	pop	r16
    2370:	ff 90       	pop	r15
    2372:	ef 90       	pop	r14
    2374:	08 95       	ret

00002376 <PID_Set_SetPoint>:

void PID_Set_SetPoint(signed long set_point){
  PID->Input.SetPoint = set_point;
    2376:	e0 91 dd 01 	lds	r30, 0x01DD
    237a:	f0 91 de 01 	lds	r31, 0x01DE
    237e:	64 87       	std	Z+12, r22	; 0x0c
    2380:	75 87       	std	Z+13, r23	; 0x0d
    2382:	86 87       	std	Z+14, r24	; 0x0e
    2384:	97 87       	std	Z+15, r25	; 0x0f
}
    2386:	08 95       	ret

00002388 <PID_Set_ProcessValue>:

void PID_Set_ProcessValue(signed long process_value){
  PID->Input.ProcessValue = process_value;
    2388:	e0 91 dd 01 	lds	r30, 0x01DD
    238c:	f0 91 de 01 	lds	r31, 0x01DE
    2390:	60 8b       	std	Z+16, r22	; 0x10
    2392:	71 8b       	std	Z+17, r23	; 0x11
    2394:	82 8b       	std	Z+18, r24	; 0x12
    2396:	93 8b       	std	Z+19, r25	; 0x13
}
    2398:	08 95       	ret

0000239a <PID_Set_Max_IError>:

void PID_Set_Max_IError(signed long max_ierror){
  PID->Error.IErrorLimit = max_ierror;
    239a:	e0 91 dd 01 	lds	r30, 0x01DD
    239e:	f0 91 de 01 	lds	r31, 0x01DE
    23a2:	60 a3       	std	Z+32, r22	; 0x20
    23a4:	71 a3       	std	Z+33, r23	; 0x21
    23a6:	82 a3       	std	Z+34, r24	; 0x22
    23a8:	93 a3       	std	Z+35, r25	; 0x23
}
    23aa:	08 95       	ret

000023ac <PID_Reset_IError>:




void PID_Reset_IError(void){
  PID->Error.IError = 0;
    23ac:	e0 91 dd 01 	lds	r30, 0x01DD
    23b0:	f0 91 de 01 	lds	r31, 0x01DE
    23b4:	14 8e       	std	Z+28, r1	; 0x1c
    23b6:	15 8e       	std	Z+29, r1	; 0x1d
    23b8:	16 8e       	std	Z+30, r1	; 0x1e
    23ba:	17 8e       	std	Z+31, r1	; 0x1f
}
    23bc:	08 95       	ret

000023be <PID_Calculate_Error>:

void PID_Calculate_Error(void){
    23be:	ef 92       	push	r14
    23c0:	ff 92       	push	r15
    23c2:	0f 93       	push	r16
    23c4:	1f 93       	push	r17
  PID->Error.PError = PID->Input.SetPoint - PID->Input.ProcessValue;
    23c6:	e0 91 dd 01 	lds	r30, 0x01DD
    23ca:	f0 91 de 01 	lds	r31, 0x01DE
    23ce:	24 85       	ldd	r18, Z+12	; 0x0c
    23d0:	35 85       	ldd	r19, Z+13	; 0x0d
    23d2:	46 85       	ldd	r20, Z+14	; 0x0e
    23d4:	57 85       	ldd	r21, Z+15	; 0x0f
    23d6:	80 89       	ldd	r24, Z+16	; 0x10
    23d8:	91 89       	ldd	r25, Z+17	; 0x11
    23da:	a2 89       	ldd	r26, Z+18	; 0x12
    23dc:	b3 89       	ldd	r27, Z+19	; 0x13
    23de:	28 1b       	sub	r18, r24
    23e0:	39 0b       	sbc	r19, r25
    23e2:	4a 0b       	sbc	r20, r26
    23e4:	5b 0b       	sbc	r21, r27
    23e6:	24 8b       	std	Z+20, r18	; 0x14
    23e8:	35 8b       	std	Z+21, r19	; 0x15
    23ea:	46 8b       	std	Z+22, r20	; 0x16
    23ec:	57 8b       	std	Z+23, r21	; 0x17
  PID->Error.DError = PID->Error.PError - PID->Error.LastError;
    23ee:	84 a1       	ldd	r24, Z+36	; 0x24
    23f0:	95 a1       	ldd	r25, Z+37	; 0x25
    23f2:	a6 a1       	ldd	r26, Z+38	; 0x26
    23f4:	b7 a1       	ldd	r27, Z+39	; 0x27
    23f6:	79 01       	movw	r14, r18
    23f8:	8a 01       	movw	r16, r20
    23fa:	e8 1a       	sub	r14, r24
    23fc:	f9 0a       	sbc	r15, r25
    23fe:	0a 0b       	sbc	r16, r26
    2400:	1b 0b       	sbc	r17, r27
    2402:	e0 8e       	std	Z+24, r14	; 0x18
    2404:	f1 8e       	std	Z+25, r15	; 0x19
    2406:	02 8f       	std	Z+26, r16	; 0x1a
    2408:	13 8f       	std	Z+27, r17	; 0x1b
  PID->Error.LastError = PID->Error.PError;
    240a:	24 a3       	std	Z+36, r18	; 0x24
    240c:	35 a3       	std	Z+37, r19	; 0x25
    240e:	46 a3       	std	Z+38, r20	; 0x26
    2410:	57 a3       	std	Z+39, r21	; 0x27
  PID->Error.IError += PID->Error.PError;
    2412:	e4 8c       	ldd	r14, Z+28	; 0x1c
    2414:	f5 8c       	ldd	r15, Z+29	; 0x1d
    2416:	06 8d       	ldd	r16, Z+30	; 0x1e
    2418:	17 8d       	ldd	r17, Z+31	; 0x1f
    241a:	e2 0e       	add	r14, r18
    241c:	f3 1e       	adc	r15, r19
    241e:	04 1f       	adc	r16, r20
    2420:	15 1f       	adc	r17, r21
    2422:	e4 8e       	std	Z+28, r14	; 0x1c
    2424:	f5 8e       	std	Z+29, r15	; 0x1d
    2426:	06 8f       	std	Z+30, r16	; 0x1e
    2428:	17 8f       	std	Z+31, r17	; 0x1f
  if     ( PID->Error.IError > PID->Error.IErrorLimit ){
    242a:	80 a1       	ldd	r24, Z+32	; 0x20
    242c:	91 a1       	ldd	r25, Z+33	; 0x21
    242e:	a2 a1       	ldd	r26, Z+34	; 0x22
    2430:	b3 a1       	ldd	r27, Z+35	; 0x23
    2432:	8e 15       	cp	r24, r14
    2434:	9f 05       	cpc	r25, r15
    2436:	a0 07       	cpc	r26, r16
    2438:	b1 07       	cpc	r27, r17
    243a:	2c f4       	brge	.+10     	; 0x2446 <PID_Calculate_Error+0x88>
    PID->Error.IError = PID->Error.IErrorLimit;
    243c:	84 8f       	std	Z+28, r24	; 0x1c
    243e:	95 8f       	std	Z+29, r25	; 0x1d
    2440:	a6 8f       	std	Z+30, r26	; 0x1e
    2442:	b7 8f       	std	Z+31, r27	; 0x1f
    2444:	10 c0       	rjmp	.+32     	; 0x2466 <PID_Calculate_Error+0xa8>
  }
  else if( PID->Error.IError < -PID->Error.IErrorLimit ){
    2446:	22 27       	eor	r18, r18
    2448:	33 27       	eor	r19, r19
    244a:	a9 01       	movw	r20, r18
    244c:	28 1b       	sub	r18, r24
    244e:	39 0b       	sbc	r19, r25
    2450:	4a 0b       	sbc	r20, r26
    2452:	5b 0b       	sbc	r21, r27
    2454:	e2 16       	cp	r14, r18
    2456:	f3 06       	cpc	r15, r19
    2458:	04 07       	cpc	r16, r20
    245a:	15 07       	cpc	r17, r21
    245c:	24 f4       	brge	.+8      	; 0x2466 <PID_Calculate_Error+0xa8>
    PID->Error.IError = -PID->Error.IErrorLimit;
    245e:	24 8f       	std	Z+28, r18	; 0x1c
    2460:	35 8f       	std	Z+29, r19	; 0x1d
    2462:	46 8f       	std	Z+30, r20	; 0x1e
    2464:	57 8f       	std	Z+31, r21	; 0x1f
  }
}
    2466:	1f 91       	pop	r17
    2468:	0f 91       	pop	r16
    246a:	ff 90       	pop	r15
    246c:	ef 90       	pop	r14
    246e:	08 95       	ret

00002470 <PID_Calculate_Error_Products>:

void PID_Calculate_Error_Products(void){
    2470:	4f 92       	push	r4
    2472:	5f 92       	push	r5
    2474:	6f 92       	push	r6
    2476:	7f 92       	push	r7
    2478:	8f 92       	push	r8
    247a:	9f 92       	push	r9
    247c:	af 92       	push	r10
    247e:	bf 92       	push	r11
    2480:	cf 92       	push	r12
    2482:	df 92       	push	r13
    2484:	ef 92       	push	r14
    2486:	ff 92       	push	r15
    2488:	0f 93       	push	r16
    248a:	1f 93       	push	r17
  PID->Products.PError = ( PID->Error.PError * PID->Input.Kp );
    248c:	00 91 dd 01 	lds	r16, 0x01DD
    2490:	10 91 de 01 	lds	r17, 0x01DE
    2494:	f8 01       	movw	r30, r16
    2496:	60 81       	ld	r22, Z
    2498:	71 81       	ldd	r23, Z+1	; 0x01
    249a:	82 81       	ldd	r24, Z+2	; 0x02
    249c:	93 81       	ldd	r25, Z+3	; 0x03
    249e:	24 89       	ldd	r18, Z+20	; 0x14
    24a0:	35 89       	ldd	r19, Z+21	; 0x15
    24a2:	46 89       	ldd	r20, Z+22	; 0x16
    24a4:	57 89       	ldd	r21, Z+23	; 0x17
    24a6:	0e 94 58 14 	call	0x28b0	; 0x28b0 <__mulsi3>
    24aa:	2b 01       	movw	r4, r22
    24ac:	3c 01       	movw	r6, r24
  PID->Products.IError = ( PID->Error.IError * PID->Input.Ki );
    24ae:	f8 01       	movw	r30, r16
    24b0:	64 81       	ldd	r22, Z+4	; 0x04
    24b2:	75 81       	ldd	r23, Z+5	; 0x05
    24b4:	86 81       	ldd	r24, Z+6	; 0x06
    24b6:	97 81       	ldd	r25, Z+7	; 0x07
    24b8:	24 8d       	ldd	r18, Z+28	; 0x1c
    24ba:	35 8d       	ldd	r19, Z+29	; 0x1d
    24bc:	46 8d       	ldd	r20, Z+30	; 0x1e
    24be:	57 8d       	ldd	r21, Z+31	; 0x1f
    24c0:	0e 94 58 14 	call	0x28b0	; 0x28b0 <__mulsi3>
    24c4:	4b 01       	movw	r8, r22
    24c6:	5c 01       	movw	r10, r24
  PID->Products.DError = ( PID->Error.DError * PID->Input.Kd );
    24c8:	f8 01       	movw	r30, r16
    24ca:	60 85       	ldd	r22, Z+8	; 0x08
    24cc:	71 85       	ldd	r23, Z+9	; 0x09
    24ce:	82 85       	ldd	r24, Z+10	; 0x0a
    24d0:	93 85       	ldd	r25, Z+11	; 0x0b
    24d2:	20 8d       	ldd	r18, Z+24	; 0x18
    24d4:	31 8d       	ldd	r19, Z+25	; 0x19
    24d6:	42 8d       	ldd	r20, Z+26	; 0x1a
    24d8:	53 8d       	ldd	r21, Z+27	; 0x1b
    24da:	0e 94 58 14 	call	0x28b0	; 0x28b0 <__mulsi3>
    24de:	6b 01       	movw	r12, r22
    24e0:	7c 01       	movw	r14, r24
  PID->Products.PError/= PID_OUTPUT_SCALING_FACT;
    24e2:	c3 01       	movw	r24, r6
    24e4:	b2 01       	movw	r22, r4
    24e6:	24 e6       	ldi	r18, 0x64	; 100
    24e8:	30 e0       	ldi	r19, 0x00	; 0
    24ea:	40 e0       	ldi	r20, 0x00	; 0
    24ec:	50 e0       	ldi	r21, 0x00	; 0
    24ee:	0e 94 ad 14 	call	0x295a	; 0x295a <__divmodsi4>
    24f2:	f8 01       	movw	r30, r16
    24f4:	20 a7       	std	Z+40, r18	; 0x28
    24f6:	31 a7       	std	Z+41, r19	; 0x29
    24f8:	42 a7       	std	Z+42, r20	; 0x2a
    24fa:	53 a7       	std	Z+43, r21	; 0x2b
  PID->Products.IError/= PID_OUTPUT_SCALING_FACT;
    24fc:	c5 01       	movw	r24, r10
    24fe:	b4 01       	movw	r22, r8
    2500:	24 e6       	ldi	r18, 0x64	; 100
    2502:	30 e0       	ldi	r19, 0x00	; 0
    2504:	40 e0       	ldi	r20, 0x00	; 0
    2506:	50 e0       	ldi	r21, 0x00	; 0
    2508:	0e 94 ad 14 	call	0x295a	; 0x295a <__divmodsi4>
    250c:	f8 01       	movw	r30, r16
    250e:	24 a7       	std	Z+44, r18	; 0x2c
    2510:	35 a7       	std	Z+45, r19	; 0x2d
    2512:	46 a7       	std	Z+46, r20	; 0x2e
    2514:	57 a7       	std	Z+47, r21	; 0x2f
  PID->Products.DError/= PID_OUTPUT_SCALING_FACT;
    2516:	c7 01       	movw	r24, r14
    2518:	b6 01       	movw	r22, r12
    251a:	24 e6       	ldi	r18, 0x64	; 100
    251c:	30 e0       	ldi	r19, 0x00	; 0
    251e:	40 e0       	ldi	r20, 0x00	; 0
    2520:	50 e0       	ldi	r21, 0x00	; 0
    2522:	0e 94 ad 14 	call	0x295a	; 0x295a <__divmodsi4>
    2526:	f8 01       	movw	r30, r16
    2528:	20 ab       	std	Z+48, r18	; 0x30
    252a:	31 ab       	std	Z+49, r19	; 0x31
    252c:	42 ab       	std	Z+50, r20	; 0x32
    252e:	53 ab       	std	Z+51, r21	; 0x33
}
    2530:	1f 91       	pop	r17
    2532:	0f 91       	pop	r16
    2534:	ff 90       	pop	r15
    2536:	ef 90       	pop	r14
    2538:	df 90       	pop	r13
    253a:	cf 90       	pop	r12
    253c:	bf 90       	pop	r11
    253e:	af 90       	pop	r10
    2540:	9f 90       	pop	r9
    2542:	8f 90       	pop	r8
    2544:	7f 90       	pop	r7
    2546:	6f 90       	pop	r6
    2548:	5f 90       	pop	r5
    254a:	4f 90       	pop	r4
    254c:	08 95       	ret

0000254e <PID_Execute_Routine>:

void PID_Execute_Routine(void){
  signed long control_value = 0;
  PID_Calculate_Error();
    254e:	0e 94 df 11 	call	0x23be	; 0x23be <PID_Calculate_Error>
  PID_Calculate_Error_Products();
    2552:	0e 94 38 12 	call	0x2470	; 0x2470 <PID_Calculate_Error_Products>
  control_value  = PID->Products.PError;
    2556:	e0 91 dd 01 	lds	r30, 0x01DD
    255a:	f0 91 de 01 	lds	r31, 0x01DE
    255e:	20 a5       	ldd	r18, Z+40	; 0x28
    2560:	31 a5       	ldd	r19, Z+41	; 0x29
    2562:	42 a5       	ldd	r20, Z+42	; 0x2a
    2564:	53 a5       	ldd	r21, Z+43	; 0x2b
  control_value += PID->Products.IError;
    2566:	84 a5       	ldd	r24, Z+44	; 0x2c
    2568:	95 a5       	ldd	r25, Z+45	; 0x2d
    256a:	a6 a5       	ldd	r26, Z+46	; 0x2e
    256c:	b7 a5       	ldd	r27, Z+47	; 0x2f
    256e:	28 0f       	add	r18, r24
    2570:	39 1f       	adc	r19, r25
    2572:	4a 1f       	adc	r20, r26
    2574:	5b 1f       	adc	r21, r27
  control_value += PID->Products.DError;
    2576:	80 a9       	ldd	r24, Z+48	; 0x30
    2578:	91 a9       	ldd	r25, Z+49	; 0x31
    257a:	a2 a9       	ldd	r26, Z+50	; 0x32
    257c:	b3 a9       	ldd	r27, Z+51	; 0x33
    257e:	28 0f       	add	r18, r24
    2580:	39 1f       	adc	r19, r25
    2582:	4a 1f       	adc	r20, r26
    2584:	5b 1f       	adc	r21, r27
  PID->Output    = control_value;
    2586:	24 ab       	std	Z+52, r18	; 0x34
    2588:	35 ab       	std	Z+53, r19	; 0x35
    258a:	46 ab       	std	Z+54, r20	; 0x36
    258c:	57 ab       	std	Z+55, r21	; 0x37
  if(control_value < 0){
    258e:	57 ff       	sbrs	r21, 7
    2590:	05 c0       	rjmp	.+10     	; 0x259c <PID_Execute_Routine+0x4e>
    PID->OutputNonNegative = 0;
    2592:	10 ae       	std	Z+56, r1	; 0x38
    2594:	11 ae       	std	Z+57, r1	; 0x39
    2596:	12 ae       	std	Z+58, r1	; 0x3a
    2598:	13 ae       	std	Z+59, r1	; 0x3b
    259a:	08 95       	ret
  }else{
    PID->OutputNonNegative = control_value;
    259c:	20 af       	std	Z+56, r18	; 0x38
    259e:	31 af       	std	Z+57, r19	; 0x39
    25a0:	42 af       	std	Z+58, r20	; 0x3a
    25a2:	53 af       	std	Z+59, r21	; 0x3b
    25a4:	08 95       	ret

000025a6 <PID_Get_Kp>:
  }
}

signed long PID_Get_Kp(void){
    25a6:	e0 91 dd 01 	lds	r30, 0x01DD
    25aa:	f0 91 de 01 	lds	r31, 0x01DE
    25ae:	60 81       	ld	r22, Z
    25b0:	71 81       	ldd	r23, Z+1	; 0x01
  return PID->Input.Kp;
}
    25b2:	82 81       	ldd	r24, Z+2	; 0x02
    25b4:	93 81       	ldd	r25, Z+3	; 0x03
    25b6:	08 95       	ret

000025b8 <PID_Get_Ki>:

signed long PID_Get_Ki(void){
    25b8:	e0 91 dd 01 	lds	r30, 0x01DD
    25bc:	f0 91 de 01 	lds	r31, 0x01DE
    25c0:	64 81       	ldd	r22, Z+4	; 0x04
    25c2:	75 81       	ldd	r23, Z+5	; 0x05
  return PID->Input.Ki;
}
    25c4:	86 81       	ldd	r24, Z+6	; 0x06
    25c6:	97 81       	ldd	r25, Z+7	; 0x07
    25c8:	08 95       	ret

000025ca <PID_Get_Kd>:

signed long PID_Get_Kd(void){
    25ca:	e0 91 dd 01 	lds	r30, 0x01DD
    25ce:	f0 91 de 01 	lds	r31, 0x01DE
    25d2:	60 85       	ldd	r22, Z+8	; 0x08
    25d4:	71 85       	ldd	r23, Z+9	; 0x09
  return PID->Input.Kd;
}
    25d6:	82 85       	ldd	r24, Z+10	; 0x0a
    25d8:	93 85       	ldd	r25, Z+11	; 0x0b
    25da:	08 95       	ret

000025dc <PID_Get_Set_Point>:

signed long PID_Get_Set_Point(void){
    25dc:	e0 91 dd 01 	lds	r30, 0x01DD
    25e0:	f0 91 de 01 	lds	r31, 0x01DE
    25e4:	64 85       	ldd	r22, Z+12	; 0x0c
    25e6:	75 85       	ldd	r23, Z+13	; 0x0d
  return PID->Input.SetPoint;
}
    25e8:	86 85       	ldd	r24, Z+14	; 0x0e
    25ea:	97 85       	ldd	r25, Z+15	; 0x0f
    25ec:	08 95       	ret

000025ee <PID_Get_Process_Value>:

signed long PID_Get_Process_Value(void){
    25ee:	e0 91 dd 01 	lds	r30, 0x01DD
    25f2:	f0 91 de 01 	lds	r31, 0x01DE
    25f6:	60 89       	ldd	r22, Z+16	; 0x10
    25f8:	71 89       	ldd	r23, Z+17	; 0x11
  return PID->Input.ProcessValue;
}
    25fa:	82 89       	ldd	r24, Z+18	; 0x12
    25fc:	93 89       	ldd	r25, Z+19	; 0x13
    25fe:	08 95       	ret

00002600 <PID_Get_PError>:

signed long PID_Get_PError(void){
    2600:	e0 91 dd 01 	lds	r30, 0x01DD
    2604:	f0 91 de 01 	lds	r31, 0x01DE
    2608:	64 89       	ldd	r22, Z+20	; 0x14
    260a:	75 89       	ldd	r23, Z+21	; 0x15
  return PID->Error.PError;
}
    260c:	86 89       	ldd	r24, Z+22	; 0x16
    260e:	97 89       	ldd	r25, Z+23	; 0x17
    2610:	08 95       	ret

00002612 <PID_Get_IError>:

signed long PID_Get_IError(void){
    2612:	e0 91 dd 01 	lds	r30, 0x01DD
    2616:	f0 91 de 01 	lds	r31, 0x01DE
    261a:	64 8d       	ldd	r22, Z+28	; 0x1c
    261c:	75 8d       	ldd	r23, Z+29	; 0x1d
  return PID->Error.IError;
}
    261e:	86 8d       	ldd	r24, Z+30	; 0x1e
    2620:	97 8d       	ldd	r25, Z+31	; 0x1f
    2622:	08 95       	ret

00002624 <PID_Get_DError>:

signed long PID_Get_DError(void){
    2624:	e0 91 dd 01 	lds	r30, 0x01DD
    2628:	f0 91 de 01 	lds	r31, 0x01DE
    262c:	60 8d       	ldd	r22, Z+24	; 0x18
    262e:	71 8d       	ldd	r23, Z+25	; 0x19
  return PID->Error.DError;
}
    2630:	82 8d       	ldd	r24, Z+26	; 0x1a
    2632:	93 8d       	ldd	r25, Z+27	; 0x1b
    2634:	08 95       	ret

00002636 <PID_Get_Max_IError>:

signed long PID_Get_Max_IError(void){
    2636:	e0 91 dd 01 	lds	r30, 0x01DD
    263a:	f0 91 de 01 	lds	r31, 0x01DE
    263e:	60 a1       	ldd	r22, Z+32	; 0x20
    2640:	71 a1       	ldd	r23, Z+33	; 0x21
  return PID->Error.IErrorLimit;
}
    2642:	82 a1       	ldd	r24, Z+34	; 0x22
    2644:	93 a1       	ldd	r25, Z+35	; 0x23
    2646:	08 95       	ret

00002648 <PID_Get_PError_Product>:

signed long PID_Get_PError_Product(void){
    2648:	e0 91 dd 01 	lds	r30, 0x01DD
    264c:	f0 91 de 01 	lds	r31, 0x01DE
    2650:	60 a5       	ldd	r22, Z+40	; 0x28
    2652:	71 a5       	ldd	r23, Z+41	; 0x29
  return PID->Products.PError;
}
    2654:	82 a5       	ldd	r24, Z+42	; 0x2a
    2656:	93 a5       	ldd	r25, Z+43	; 0x2b
    2658:	08 95       	ret

0000265a <PID_Get_IError_Product>:

signed long PID_Get_IError_Product(void){
    265a:	e0 91 dd 01 	lds	r30, 0x01DD
    265e:	f0 91 de 01 	lds	r31, 0x01DE
    2662:	64 a5       	ldd	r22, Z+44	; 0x2c
    2664:	75 a5       	ldd	r23, Z+45	; 0x2d
  return PID->Products.IError;
}
    2666:	86 a5       	ldd	r24, Z+46	; 0x2e
    2668:	97 a5       	ldd	r25, Z+47	; 0x2f
    266a:	08 95       	ret

0000266c <PID_Get_DError_Product>:

signed long PID_Get_DError_Product(void){
    266c:	e0 91 dd 01 	lds	r30, 0x01DD
    2670:	f0 91 de 01 	lds	r31, 0x01DE
    2674:	60 a9       	ldd	r22, Z+48	; 0x30
    2676:	71 a9       	ldd	r23, Z+49	; 0x31
  return PID->Products.DError;
}
    2678:	82 a9       	ldd	r24, Z+50	; 0x32
    267a:	93 a9       	ldd	r25, Z+51	; 0x33
    267c:	08 95       	ret

0000267e <PID_Get_Output>:


signed long PID_Get_Output(void){
    267e:	e0 91 dd 01 	lds	r30, 0x01DD
    2682:	f0 91 de 01 	lds	r31, 0x01DE
    2686:	64 a9       	ldd	r22, Z+52	; 0x34
    2688:	75 a9       	ldd	r23, Z+53	; 0x35
  return PID->Output;
}
    268a:	86 a9       	ldd	r24, Z+54	; 0x36
    268c:	97 a9       	ldd	r25, Z+55	; 0x37
    268e:	08 95       	ret

00002690 <PID_Get_Output_NonNegative>:

signed long PID_Get_Output_NonNegative(void){
    2690:	e0 91 dd 01 	lds	r30, 0x01DD
    2694:	f0 91 de 01 	lds	r31, 0x01DE
    2698:	60 ad       	ldd	r22, Z+56	; 0x38
    269a:	71 ad       	ldd	r23, Z+57	; 0x39
  return PID->OutputNonNegative;
}
    269c:	82 ad       	ldd	r24, Z+58	; 0x3a
    269e:	93 ad       	ldd	r25, Z+59	; 0x3b
    26a0:	08 95       	ret

000026a2 <PID_Init>:



void PID_Init(void){
  PID_Struct_Init();
    26a2:	0e 94 0c 11 	call	0x2218	; 0x2218 <PID_Struct_Init>
}
    26a6:	08 95       	ret

000026a8 <Debug_Print_Seperation>:
  UART_Init(57600);
}

void Debug_Print_Seperation(void){
  #ifdef DEBUG_COMMA_SEPERATED
    UART_Transmit_Text(",");
    26a8:	8f e0       	ldi	r24, 0x0F	; 15
    26aa:	91 e0       	ldi	r25, 0x01	; 1
    26ac:	0e 94 fe 01 	call	0x3fc	; 0x3fc <UART_Transmit_Text>
  #elif DEBUG_SPACE_SEPERATED
    UART_Transmit_Text(" ");
  #endif
}
    26b0:	08 95       	ret

000026b2 <Debug_Print_Display_Temperature>:

void Debug_Print_Display_Temperature(void){
  #ifdef DEBUG_VERBOSE_OUTPUT
    UART_Transmit_Text("DispTemp ");
  #endif
  UART_Transmit_Number(ADC_Get_Display_Temperature());
    26b2:	0e 94 8f 0e 	call	0x1d1e	; 0x1d1e <ADC_Get_Display_Temperature>
    26b6:	a0 e0       	ldi	r26, 0x00	; 0
    26b8:	b0 e0       	ldi	r27, 0x00	; 0
    26ba:	bc 01       	movw	r22, r24
    26bc:	cd 01       	movw	r24, r26
    26be:	0e 94 6d 02 	call	0x4da	; 0x4da <UART_Transmit_Number>
  UART_Init(57600);
}

void Debug_Print_Seperation(void){
  #ifdef DEBUG_COMMA_SEPERATED
    UART_Transmit_Text(",");
    26c2:	8f e0       	ldi	r24, 0x0F	; 15
    26c4:	91 e0       	ldi	r25, 0x01	; 1
    26c6:	0e 94 fe 01 	call	0x3fc	; 0x3fc <UART_Transmit_Text>
  #ifdef DEBUG_VERBOSE_OUTPUT
    UART_Transmit_Text("DispTemp ");
  #endif
  UART_Transmit_Number(ADC_Get_Display_Temperature());
  Debug_Print_Seperation();
}
    26ca:	08 95       	ret

000026cc <Debug_Print_Current_Temperature>:

void Debug_Print_Current_Temperature(void){
  #ifdef DEBUG_VERBOSE_OUTPUT
    UART_Transmit_Text("Temp ");
  #endif
  UART_Transmit_Number(ADC_Get_Temperature());
    26cc:	0e 94 65 0e 	call	0x1cca	; 0x1cca <ADC_Get_Temperature>
    26d0:	a0 e0       	ldi	r26, 0x00	; 0
    26d2:	b0 e0       	ldi	r27, 0x00	; 0
    26d4:	bc 01       	movw	r22, r24
    26d6:	cd 01       	movw	r24, r26
    26d8:	0e 94 6d 02 	call	0x4da	; 0x4da <UART_Transmit_Number>
  UART_Init(57600);
}

void Debug_Print_Seperation(void){
  #ifdef DEBUG_COMMA_SEPERATED
    UART_Transmit_Text(",");
    26dc:	8f e0       	ldi	r24, 0x0F	; 15
    26de:	91 e0       	ldi	r25, 0x01	; 1
    26e0:	0e 94 fe 01 	call	0x3fc	; 0x3fc <UART_Transmit_Text>
  #ifdef DEBUG_VERBOSE_OUTPUT
    UART_Transmit_Text("Temp ");
  #endif
  UART_Transmit_Number(ADC_Get_Temperature());
  Debug_Print_Seperation();
}
    26e4:	08 95       	ret

000026e6 <Debug_Print_Power_Bar_Value>:

void Debug_Print_Power_Bar_Value(void){
  #ifdef DEBUG_VERBOSE_OUTPUT
    UART_Transmit_Text("PowerBar ");
  #endif
  UART_Transmit_Number(ADC_Get_Power_Bar());
    26e6:	0e 94 88 0e 	call	0x1d10	; 0x1d10 <ADC_Get_Power_Bar>
    26ea:	a0 e0       	ldi	r26, 0x00	; 0
    26ec:	b0 e0       	ldi	r27, 0x00	; 0
    26ee:	bc 01       	movw	r22, r24
    26f0:	cd 01       	movw	r24, r26
    26f2:	0e 94 6d 02 	call	0x4da	; 0x4da <UART_Transmit_Number>
  UART_Init(57600);
}

void Debug_Print_Seperation(void){
  #ifdef DEBUG_COMMA_SEPERATED
    UART_Transmit_Text(",");
    26f6:	8f e0       	ldi	r24, 0x0F	; 15
    26f8:	91 e0       	ldi	r25, 0x01	; 1
    26fa:	0e 94 fe 01 	call	0x3fc	; 0x3fc <UART_Transmit_Text>
  #ifdef DEBUG_VERBOSE_OUTPUT
    UART_Transmit_Text("PowerBar ");
  #endif
  UART_Transmit_Number(ADC_Get_Power_Bar());
  Debug_Print_Seperation();
}
    26fe:	08 95       	ret

00002700 <Debug_Print_Power_Draw>:

void Debug_Print_Power_Draw(void){
  #ifdef DEBUG_VERBOSE_OUTPUT
    UART_Transmit_Text("Power ");
  #endif
  UART_Transmit_Number(ADC_Get_Power_Draw());
    2700:	0e 94 81 0e 	call	0x1d02	; 0x1d02 <ADC_Get_Power_Draw>
    2704:	a0 e0       	ldi	r26, 0x00	; 0
    2706:	b0 e0       	ldi	r27, 0x00	; 0
    2708:	bc 01       	movw	r22, r24
    270a:	cd 01       	movw	r24, r26
    270c:	0e 94 6d 02 	call	0x4da	; 0x4da <UART_Transmit_Number>
  UART_Init(57600);
}

void Debug_Print_Seperation(void){
  #ifdef DEBUG_COMMA_SEPERATED
    UART_Transmit_Text(",");
    2710:	8f e0       	ldi	r24, 0x0F	; 15
    2712:	91 e0       	ldi	r25, 0x01	; 1
    2714:	0e 94 fe 01 	call	0x3fc	; 0x3fc <UART_Transmit_Text>
  #ifdef DEBUG_VERBOSE_OUTPUT
    UART_Transmit_Text("Power ");
  #endif
  UART_Transmit_Number(ADC_Get_Power_Draw());
  Debug_Print_Seperation();
}
    2718:	08 95       	ret

0000271a <Debug_Print_Current_Draw>:

void Debug_Print_Current_Draw(void){
  #ifdef DEBUG_VERBOSE_OUTPUT
    UART_Transmit_Text("Current ");
  #endif
  UART_Transmit_Number(ADC_Get_Current());
    271a:	0e 94 73 0e 	call	0x1ce6	; 0x1ce6 <ADC_Get_Current>
    271e:	a0 e0       	ldi	r26, 0x00	; 0
    2720:	b0 e0       	ldi	r27, 0x00	; 0
    2722:	bc 01       	movw	r22, r24
    2724:	cd 01       	movw	r24, r26
    2726:	0e 94 6d 02 	call	0x4da	; 0x4da <UART_Transmit_Number>
  UART_Init(57600);
}

void Debug_Print_Seperation(void){
  #ifdef DEBUG_COMMA_SEPERATED
    UART_Transmit_Text(",");
    272a:	8f e0       	ldi	r24, 0x0F	; 15
    272c:	91 e0       	ldi	r25, 0x01	; 1
    272e:	0e 94 fe 01 	call	0x3fc	; 0x3fc <UART_Transmit_Text>
  #ifdef DEBUG_VERBOSE_OUTPUT
    UART_Transmit_Text("Current ");
  #endif
  UART_Transmit_Number(ADC_Get_Current());
  Debug_Print_Seperation();
}
    2732:	08 95       	ret

00002734 <Debug_Print_Vin>:

void Debug_Print_Vin(void){
  #ifdef DEBUG_VERBOSE_OUTPUT
    UART_Transmit_Text("Vin ");
  #endif
  UART_Transmit_Number(ADC_Get_Input_Voltage());
    2734:	0e 94 6c 0e 	call	0x1cd8	; 0x1cd8 <ADC_Get_Input_Voltage>
    2738:	a0 e0       	ldi	r26, 0x00	; 0
    273a:	b0 e0       	ldi	r27, 0x00	; 0
    273c:	bc 01       	movw	r22, r24
    273e:	cd 01       	movw	r24, r26
    2740:	0e 94 6d 02 	call	0x4da	; 0x4da <UART_Transmit_Number>
  UART_Init(57600);
}

void Debug_Print_Seperation(void){
  #ifdef DEBUG_COMMA_SEPERATED
    UART_Transmit_Text(",");
    2744:	8f e0       	ldi	r24, 0x0F	; 15
    2746:	91 e0       	ldi	r25, 0x01	; 1
    2748:	0e 94 fe 01 	call	0x3fc	; 0x3fc <UART_Transmit_Text>
  #ifdef DEBUG_VERBOSE_OUTPUT
    UART_Transmit_Text("Vin ");
  #endif
  UART_Transmit_Number(ADC_Get_Input_Voltage());
  Debug_Print_Seperation();
}
    274c:	08 95       	ret

0000274e <Debug_Print_Max_PWM>:

void Debug_Print_Max_PWM(void){
  #ifdef DEBUG_VERBOSE_OUTPUT
    UART_Transmit_Text("PWM ");
  #endif
  UART_Transmit_Number(Iron_Get_Max_PWM());
    274e:	0e 94 17 10 	call	0x202e	; 0x202e <Iron_Get_Max_PWM>
    2752:	a0 e0       	ldi	r26, 0x00	; 0
    2754:	b0 e0       	ldi	r27, 0x00	; 0
    2756:	bc 01       	movw	r22, r24
    2758:	cd 01       	movw	r24, r26
    275a:	0e 94 6d 02 	call	0x4da	; 0x4da <UART_Transmit_Number>
  UART_Init(57600);
}

void Debug_Print_Seperation(void){
  #ifdef DEBUG_COMMA_SEPERATED
    UART_Transmit_Text(",");
    275e:	8f e0       	ldi	r24, 0x0F	; 15
    2760:	91 e0       	ldi	r25, 0x01	; 1
    2762:	0e 94 fe 01 	call	0x3fc	; 0x3fc <UART_Transmit_Text>
  #ifdef DEBUG_VERBOSE_OUTPUT
    UART_Transmit_Text("PWM ");
  #endif
  UART_Transmit_Number(Iron_Get_Max_PWM());
  Debug_Print_Seperation();
}
    2766:	08 95       	ret

00002768 <Debug_Print_PWM>:

void Debug_Print_PWM(void){
  #ifdef DEBUG_VERBOSE_OUTPUT
    UART_Transmit_Text("PWM ");
  #endif
  UART_Transmit_Number(Iron_Get_PWM());
    2768:	0e 94 10 10 	call	0x2020	; 0x2020 <Iron_Get_PWM>
    276c:	a0 e0       	ldi	r26, 0x00	; 0
    276e:	b0 e0       	ldi	r27, 0x00	; 0
    2770:	bc 01       	movw	r22, r24
    2772:	cd 01       	movw	r24, r26
    2774:	0e 94 6d 02 	call	0x4da	; 0x4da <UART_Transmit_Number>
  UART_Init(57600);
}

void Debug_Print_Seperation(void){
  #ifdef DEBUG_COMMA_SEPERATED
    UART_Transmit_Text(",");
    2778:	8f e0       	ldi	r24, 0x0F	; 15
    277a:	91 e0       	ldi	r25, 0x01	; 1
    277c:	0e 94 fe 01 	call	0x3fc	; 0x3fc <UART_Transmit_Text>
  #ifdef DEBUG_VERBOSE_OUTPUT
    UART_Transmit_Text("PWM ");
  #endif
  UART_Transmit_Number(Iron_Get_PWM());
  Debug_Print_Seperation();
}
    2780:	08 95       	ret

00002782 <Debug_Print_PID_Output_NonNegative>:

void Debug_Print_PID_Output_NonNegative(void){
  #ifdef DEBUG_VERBOSE_OUTPUT
    UART_Transmit_Text("PID OutputNN ");
  #endif
  UART_Transmit_Number(PID_Get_Output_NonNegative());
    2782:	0e 94 48 13 	call	0x2690	; 0x2690 <PID_Get_Output_NonNegative>
    2786:	0e 94 6d 02 	call	0x4da	; 0x4da <UART_Transmit_Number>
  UART_Init(57600);
}

void Debug_Print_Seperation(void){
  #ifdef DEBUG_COMMA_SEPERATED
    UART_Transmit_Text(",");
    278a:	8f e0       	ldi	r24, 0x0F	; 15
    278c:	91 e0       	ldi	r25, 0x01	; 1
    278e:	0e 94 fe 01 	call	0x3fc	; 0x3fc <UART_Transmit_Text>
  #ifdef DEBUG_VERBOSE_OUTPUT
    UART_Transmit_Text("PID OutputNN ");
  #endif
  UART_Transmit_Number(PID_Get_Output_NonNegative());
  Debug_Print_Seperation();
}
    2792:	08 95       	ret

00002794 <Debug_Print_PID_Output>:

void Debug_Print_PID_Output(void){
  #ifdef DEBUG_VERBOSE_OUTPUT
    UART_Transmit_Text("PID Output ");
  #endif
  UART_Transmit_Number(PID_Get_Output());
    2794:	0e 94 3f 13 	call	0x267e	; 0x267e <PID_Get_Output>
    2798:	0e 94 6d 02 	call	0x4da	; 0x4da <UART_Transmit_Number>
  UART_Init(57600);
}

void Debug_Print_Seperation(void){
  #ifdef DEBUG_COMMA_SEPERATED
    UART_Transmit_Text(",");
    279c:	8f e0       	ldi	r24, 0x0F	; 15
    279e:	91 e0       	ldi	r25, 0x01	; 1
    27a0:	0e 94 fe 01 	call	0x3fc	; 0x3fc <UART_Transmit_Text>
  #ifdef DEBUG_VERBOSE_OUTPUT
    UART_Transmit_Text("PID Output ");
  #endif
  UART_Transmit_Number(PID_Get_Output());
  Debug_Print_Seperation();
}
    27a4:	08 95       	ret

000027a6 <Debug_Print_PID_DError_Product>:

void Debug_Print_PID_DError_Product(void){
  #ifdef DEBUG_VERBOSE_OUTPUT
    UART_Transmit_Text("PID DError Product ");
  #endif
  UART_Transmit_Number(PID_Get_DError_Product());
    27a6:	0e 94 36 13 	call	0x266c	; 0x266c <PID_Get_DError_Product>
    27aa:	0e 94 6d 02 	call	0x4da	; 0x4da <UART_Transmit_Number>
  UART_Init(57600);
}

void Debug_Print_Seperation(void){
  #ifdef DEBUG_COMMA_SEPERATED
    UART_Transmit_Text(",");
    27ae:	8f e0       	ldi	r24, 0x0F	; 15
    27b0:	91 e0       	ldi	r25, 0x01	; 1
    27b2:	0e 94 fe 01 	call	0x3fc	; 0x3fc <UART_Transmit_Text>
  #ifdef DEBUG_VERBOSE_OUTPUT
    UART_Transmit_Text("PID DError Product ");
  #endif
  UART_Transmit_Number(PID_Get_DError_Product());
  Debug_Print_Seperation();
}
    27b6:	08 95       	ret

000027b8 <Debug_Print_PID_IError_Product>:

void Debug_Print_PID_IError_Product(void){
  #ifdef DEBUG_VERBOSE_OUTPUT
    UART_Transmit_Text("PID IError Product ");
  #endif
  UART_Transmit_Number(PID_Get_IError_Product());
    27b8:	0e 94 2d 13 	call	0x265a	; 0x265a <PID_Get_IError_Product>
    27bc:	0e 94 6d 02 	call	0x4da	; 0x4da <UART_Transmit_Number>
  UART_Init(57600);
}

void Debug_Print_Seperation(void){
  #ifdef DEBUG_COMMA_SEPERATED
    UART_Transmit_Text(",");
    27c0:	8f e0       	ldi	r24, 0x0F	; 15
    27c2:	91 e0       	ldi	r25, 0x01	; 1
    27c4:	0e 94 fe 01 	call	0x3fc	; 0x3fc <UART_Transmit_Text>
  #ifdef DEBUG_VERBOSE_OUTPUT
    UART_Transmit_Text("PID IError Product ");
  #endif
  UART_Transmit_Number(PID_Get_IError_Product());
  Debug_Print_Seperation();
}
    27c8:	08 95       	ret

000027ca <Debug_Print_PID_PError_Product>:

void Debug_Print_PID_PError_Product(void){
  #ifdef DEBUG_VERBOSE_OUTPUT
    UART_Transmit_Text("PID PError Product ");
  #endif
  UART_Transmit_Number(PID_Get_PError_Product());
    27ca:	0e 94 24 13 	call	0x2648	; 0x2648 <PID_Get_PError_Product>
    27ce:	0e 94 6d 02 	call	0x4da	; 0x4da <UART_Transmit_Number>
  UART_Init(57600);
}

void Debug_Print_Seperation(void){
  #ifdef DEBUG_COMMA_SEPERATED
    UART_Transmit_Text(",");
    27d2:	8f e0       	ldi	r24, 0x0F	; 15
    27d4:	91 e0       	ldi	r25, 0x01	; 1
    27d6:	0e 94 fe 01 	call	0x3fc	; 0x3fc <UART_Transmit_Text>
  #ifdef DEBUG_VERBOSE_OUTPUT
    UART_Transmit_Text("PID PError Product ");
  #endif
  UART_Transmit_Number(PID_Get_PError_Product());
  Debug_Print_Seperation();
}
    27da:	08 95       	ret

000027dc <Debug_Print_PID_Max_IError>:

void Debug_Print_PID_Max_IError(void){
  #ifdef DEBUG_VERBOSE_OUTPUT
    UART_Transmit_Text("PID Max IError ");
  #endif
  UART_Transmit_Number(PID_Get_Max_IError());
    27dc:	0e 94 1b 13 	call	0x2636	; 0x2636 <PID_Get_Max_IError>
    27e0:	0e 94 6d 02 	call	0x4da	; 0x4da <UART_Transmit_Number>
  UART_Init(57600);
}

void Debug_Print_Seperation(void){
  #ifdef DEBUG_COMMA_SEPERATED
    UART_Transmit_Text(",");
    27e4:	8f e0       	ldi	r24, 0x0F	; 15
    27e6:	91 e0       	ldi	r25, 0x01	; 1
    27e8:	0e 94 fe 01 	call	0x3fc	; 0x3fc <UART_Transmit_Text>
  #ifdef DEBUG_VERBOSE_OUTPUT
    UART_Transmit_Text("PID Max IError ");
  #endif
  UART_Transmit_Number(PID_Get_Max_IError());
  Debug_Print_Seperation();
}
    27ec:	08 95       	ret

000027ee <Debug_Print_PID_DError>:

void Debug_Print_PID_DError(void){
  #ifdef DEBUG_VERBOSE_OUTPUT
    UART_Transmit_Text("PID DError ");
  #endif
  UART_Transmit_Number(PID_Get_DError());
    27ee:	0e 94 12 13 	call	0x2624	; 0x2624 <PID_Get_DError>
    27f2:	0e 94 6d 02 	call	0x4da	; 0x4da <UART_Transmit_Number>
  UART_Init(57600);
}

void Debug_Print_Seperation(void){
  #ifdef DEBUG_COMMA_SEPERATED
    UART_Transmit_Text(",");
    27f6:	8f e0       	ldi	r24, 0x0F	; 15
    27f8:	91 e0       	ldi	r25, 0x01	; 1
    27fa:	0e 94 fe 01 	call	0x3fc	; 0x3fc <UART_Transmit_Text>
  #ifdef DEBUG_VERBOSE_OUTPUT
    UART_Transmit_Text("PID DError ");
  #endif
  UART_Transmit_Number(PID_Get_DError());
  Debug_Print_Seperation();
}
    27fe:	08 95       	ret

00002800 <Debug_Print_PID_IError>:

void Debug_Print_PID_IError(void){
  #ifdef DEBUG_VERBOSE_OUTPUT
    UART_Transmit_Text("PID IError ");
  #endif
  UART_Transmit_Number(PID_Get_IError());
    2800:	0e 94 09 13 	call	0x2612	; 0x2612 <PID_Get_IError>
    2804:	0e 94 6d 02 	call	0x4da	; 0x4da <UART_Transmit_Number>
  UART_Init(57600);
}

void Debug_Print_Seperation(void){
  #ifdef DEBUG_COMMA_SEPERATED
    UART_Transmit_Text(",");
    2808:	8f e0       	ldi	r24, 0x0F	; 15
    280a:	91 e0       	ldi	r25, 0x01	; 1
    280c:	0e 94 fe 01 	call	0x3fc	; 0x3fc <UART_Transmit_Text>
  #ifdef DEBUG_VERBOSE_OUTPUT
    UART_Transmit_Text("PID IError ");
  #endif
  UART_Transmit_Number(PID_Get_IError());
  Debug_Print_Seperation();
}
    2810:	08 95       	ret

00002812 <Debug_Print_PID_PError>:

void Debug_Print_PID_PError(void){
  #ifdef DEBUG_VERBOSE_OUTPUT
    UART_Transmit_Text("PID PError ");
  #endif
  UART_Transmit_Number(PID_Get_PError());
    2812:	0e 94 00 13 	call	0x2600	; 0x2600 <PID_Get_PError>
    2816:	0e 94 6d 02 	call	0x4da	; 0x4da <UART_Transmit_Number>
  UART_Init(57600);
}

void Debug_Print_Seperation(void){
  #ifdef DEBUG_COMMA_SEPERATED
    UART_Transmit_Text(",");
    281a:	8f e0       	ldi	r24, 0x0F	; 15
    281c:	91 e0       	ldi	r25, 0x01	; 1
    281e:	0e 94 fe 01 	call	0x3fc	; 0x3fc <UART_Transmit_Text>
  #ifdef DEBUG_VERBOSE_OUTPUT
    UART_Transmit_Text("PID PError ");
  #endif
  UART_Transmit_Number(PID_Get_PError());
  Debug_Print_Seperation();
}
    2822:	08 95       	ret

00002824 <Debug_Print_PID_Process_Value>:

void Debug_Print_PID_Process_Value(void){
  #ifdef DEBUG_VERBOSE_OUTPUT
    UART_Transmit_Text("PID PV ");
  #endif
  UART_Transmit_Number(PID_Get_Process_Value());
    2824:	0e 94 f7 12 	call	0x25ee	; 0x25ee <PID_Get_Process_Value>
    2828:	0e 94 6d 02 	call	0x4da	; 0x4da <UART_Transmit_Number>
  UART_Init(57600);
}

void Debug_Print_Seperation(void){
  #ifdef DEBUG_COMMA_SEPERATED
    UART_Transmit_Text(",");
    282c:	8f e0       	ldi	r24, 0x0F	; 15
    282e:	91 e0       	ldi	r25, 0x01	; 1
    2830:	0e 94 fe 01 	call	0x3fc	; 0x3fc <UART_Transmit_Text>
  #ifdef DEBUG_VERBOSE_OUTPUT
    UART_Transmit_Text("PID PV ");
  #endif
  UART_Transmit_Number(PID_Get_Process_Value());
  Debug_Print_Seperation();
}
    2834:	08 95       	ret

00002836 <Debug_Print_PID_SetPoint>:

void Debug_Print_PID_SetPoint(void){
  #ifdef DEBUG_VERBOSE_OUTPUT
    UART_Transmit_Text("PID SP ");
  #endif
  UART_Transmit_Number(PID_Get_Set_Point());
    2836:	0e 94 ee 12 	call	0x25dc	; 0x25dc <PID_Get_Set_Point>
    283a:	0e 94 6d 02 	call	0x4da	; 0x4da <UART_Transmit_Number>
  UART_Init(57600);
}

void Debug_Print_Seperation(void){
  #ifdef DEBUG_COMMA_SEPERATED
    UART_Transmit_Text(",");
    283e:	8f e0       	ldi	r24, 0x0F	; 15
    2840:	91 e0       	ldi	r25, 0x01	; 1
    2842:	0e 94 fe 01 	call	0x3fc	; 0x3fc <UART_Transmit_Text>
  #ifdef DEBUG_VERBOSE_OUTPUT
    UART_Transmit_Text("PID SP ");
  #endif
  UART_Transmit_Number(PID_Get_Set_Point());
  Debug_Print_Seperation();
}
    2846:	08 95       	ret

00002848 <Debug_Print_PID_Kd>:

void Debug_Print_PID_Kd(void){
  #ifdef DEBUG_VERBOSE_OUTPUT
    UART_Transmit_Text("Kd ");
  #endif
  UART_Transmit_Number(PID_Get_Kd());
    2848:	0e 94 e5 12 	call	0x25ca	; 0x25ca <PID_Get_Kd>
    284c:	0e 94 6d 02 	call	0x4da	; 0x4da <UART_Transmit_Number>
  UART_Init(57600);
}

void Debug_Print_Seperation(void){
  #ifdef DEBUG_COMMA_SEPERATED
    UART_Transmit_Text(",");
    2850:	8f e0       	ldi	r24, 0x0F	; 15
    2852:	91 e0       	ldi	r25, 0x01	; 1
    2854:	0e 94 fe 01 	call	0x3fc	; 0x3fc <UART_Transmit_Text>
  #ifdef DEBUG_VERBOSE_OUTPUT
    UART_Transmit_Text("Kd ");
  #endif
  UART_Transmit_Number(PID_Get_Kd());
  Debug_Print_Seperation();
}
    2858:	08 95       	ret

0000285a <Debug_Print_PID_Ki>:

void Debug_Print_PID_Ki(void){
  #ifdef DEBUG_VERBOSE_OUTPUT
    UART_Transmit_Text("Ki ");
  #endif
  UART_Transmit_Number(PID_Get_Ki());
    285a:	0e 94 dc 12 	call	0x25b8	; 0x25b8 <PID_Get_Ki>
    285e:	0e 94 6d 02 	call	0x4da	; 0x4da <UART_Transmit_Number>
  UART_Init(57600);
}

void Debug_Print_Seperation(void){
  #ifdef DEBUG_COMMA_SEPERATED
    UART_Transmit_Text(",");
    2862:	8f e0       	ldi	r24, 0x0F	; 15
    2864:	91 e0       	ldi	r25, 0x01	; 1
    2866:	0e 94 fe 01 	call	0x3fc	; 0x3fc <UART_Transmit_Text>
  #ifdef DEBUG_VERBOSE_OUTPUT
    UART_Transmit_Text("Ki ");
  #endif
  UART_Transmit_Number(PID_Get_Ki());
  Debug_Print_Seperation();
}
    286a:	08 95       	ret

0000286c <Debug_Print_PID_Kp>:

void Debug_Print_PID_Kp(void){
  #ifdef DEBUG_VERBOSE_OUTPUT
    UART_Transmit_Text("Kp ");
  #endif
  UART_Transmit_Number(PID_Get_Kp());
    286c:	0e 94 d3 12 	call	0x25a6	; 0x25a6 <PID_Get_Kp>
    2870:	0e 94 6d 02 	call	0x4da	; 0x4da <UART_Transmit_Number>
  UART_Init(57600);
}

void Debug_Print_Seperation(void){
  #ifdef DEBUG_COMMA_SEPERATED
    UART_Transmit_Text(",");
    2874:	8f e0       	ldi	r24, 0x0F	; 15
    2876:	91 e0       	ldi	r25, 0x01	; 1
    2878:	0e 94 fe 01 	call	0x3fc	; 0x3fc <UART_Transmit_Text>
  #ifdef DEBUG_VERBOSE_OUTPUT
    UART_Transmit_Text("Kp ");
  #endif
  UART_Transmit_Number(PID_Get_Kp());
  Debug_Print_Seperation();
}
    287c:	08 95       	ret

0000287e <Debug_Print_SubSeconds>:

void Debug_Print_SubSeconds(void){
  #ifdef DEBUG_VERBOSE_OUTPUT
    UART_Transmit_Text("SubSeconds ");
  #endif
  UART_Transmit_Number(Timebase_Timer_Get_SubSeconds());
    287e:	0e 94 9e 04 	call	0x93c	; 0x93c <Timebase_Timer_Get_SubSeconds>
    2882:	0e 94 6d 02 	call	0x4da	; 0x4da <UART_Transmit_Number>
  UART_Init(57600);
}

void Debug_Print_Seperation(void){
  #ifdef DEBUG_COMMA_SEPERATED
    UART_Transmit_Text(",");
    2886:	8f e0       	ldi	r24, 0x0F	; 15
    2888:	91 e0       	ldi	r25, 0x01	; 1
    288a:	0e 94 fe 01 	call	0x3fc	; 0x3fc <UART_Transmit_Text>
  #ifdef DEBUG_VERBOSE_OUTPUT
    UART_Transmit_Text("SubSeconds ");
  #endif
  UART_Transmit_Number(Timebase_Timer_Get_SubSeconds());
  Debug_Print_Seperation();
}
    288e:	08 95       	ret

00002890 <Debug_Print_UpTime>:

void Debug_Print_UpTime(void){
  #ifdef DEBUG_VERBOSE_OUTPUT
    UART_Transmit_Text("UpTime ");
  #endif
  UART_Transmit_Number(Timebase_Timer_Get_Seconds());
    2890:	0e 94 a9 04 	call	0x952	; 0x952 <Timebase_Timer_Get_Seconds>
    2894:	0e 94 6d 02 	call	0x4da	; 0x4da <UART_Transmit_Number>
  UART_Init(57600);
}

void Debug_Print_Seperation(void){
  #ifdef DEBUG_COMMA_SEPERATED
    UART_Transmit_Text(",");
    2898:	8f e0       	ldi	r24, 0x0F	; 15
    289a:	91 e0       	ldi	r25, 0x01	; 1
    289c:	0e 94 fe 01 	call	0x3fc	; 0x3fc <UART_Transmit_Text>
  #ifdef DEBUG_VERBOSE_OUTPUT
    UART_Transmit_Text("UpTime ");
  #endif
  UART_Transmit_Number(Timebase_Timer_Get_Seconds());
  Debug_Print_Seperation();
}
    28a0:	08 95       	ret

000028a2 <Debug_Init>:
//#define  DEBUG_VERBOSE_OUTPUT
#define  DEBUG_COMMA_SEPERATED
//#define  DEBUG_SPACE_SEPERATED

void Debug_Init(void){
  UART_Init(57600);
    28a2:	60 e0       	ldi	r22, 0x00	; 0
    28a4:	71 ee       	ldi	r23, 0xE1	; 225
    28a6:	80 e0       	ldi	r24, 0x00	; 0
    28a8:	90 e0       	ldi	r25, 0x00	; 0
    28aa:	0e 94 00 03 	call	0x600	; 0x600 <UART_Init>
}
    28ae:	08 95       	ret

000028b0 <__mulsi3>:
    28b0:	62 9f       	mul	r22, r18
    28b2:	d0 01       	movw	r26, r0
    28b4:	73 9f       	mul	r23, r19
    28b6:	f0 01       	movw	r30, r0
    28b8:	82 9f       	mul	r24, r18
    28ba:	e0 0d       	add	r30, r0
    28bc:	f1 1d       	adc	r31, r1
    28be:	64 9f       	mul	r22, r20
    28c0:	e0 0d       	add	r30, r0
    28c2:	f1 1d       	adc	r31, r1
    28c4:	92 9f       	mul	r25, r18
    28c6:	f0 0d       	add	r31, r0
    28c8:	83 9f       	mul	r24, r19
    28ca:	f0 0d       	add	r31, r0
    28cc:	74 9f       	mul	r23, r20
    28ce:	f0 0d       	add	r31, r0
    28d0:	65 9f       	mul	r22, r21
    28d2:	f0 0d       	add	r31, r0
    28d4:	99 27       	eor	r25, r25
    28d6:	72 9f       	mul	r23, r18
    28d8:	b0 0d       	add	r27, r0
    28da:	e1 1d       	adc	r30, r1
    28dc:	f9 1f       	adc	r31, r25
    28de:	63 9f       	mul	r22, r19
    28e0:	b0 0d       	add	r27, r0
    28e2:	e1 1d       	adc	r30, r1
    28e4:	f9 1f       	adc	r31, r25
    28e6:	bd 01       	movw	r22, r26
    28e8:	cf 01       	movw	r24, r30
    28ea:	11 24       	eor	r1, r1
    28ec:	08 95       	ret

000028ee <__udivmodhi4>:
    28ee:	aa 1b       	sub	r26, r26
    28f0:	bb 1b       	sub	r27, r27
    28f2:	51 e1       	ldi	r21, 0x11	; 17
    28f4:	07 c0       	rjmp	.+14     	; 0x2904 <__udivmodhi4_ep>

000028f6 <__udivmodhi4_loop>:
    28f6:	aa 1f       	adc	r26, r26
    28f8:	bb 1f       	adc	r27, r27
    28fa:	a6 17       	cp	r26, r22
    28fc:	b7 07       	cpc	r27, r23
    28fe:	10 f0       	brcs	.+4      	; 0x2904 <__udivmodhi4_ep>
    2900:	a6 1b       	sub	r26, r22
    2902:	b7 0b       	sbc	r27, r23

00002904 <__udivmodhi4_ep>:
    2904:	88 1f       	adc	r24, r24
    2906:	99 1f       	adc	r25, r25
    2908:	5a 95       	dec	r21
    290a:	a9 f7       	brne	.-22     	; 0x28f6 <__udivmodhi4_loop>
    290c:	80 95       	com	r24
    290e:	90 95       	com	r25
    2910:	bc 01       	movw	r22, r24
    2912:	cd 01       	movw	r24, r26
    2914:	08 95       	ret

00002916 <__udivmodsi4>:
    2916:	a1 e2       	ldi	r26, 0x21	; 33
    2918:	1a 2e       	mov	r1, r26
    291a:	aa 1b       	sub	r26, r26
    291c:	bb 1b       	sub	r27, r27
    291e:	fd 01       	movw	r30, r26
    2920:	0d c0       	rjmp	.+26     	; 0x293c <__udivmodsi4_ep>

00002922 <__udivmodsi4_loop>:
    2922:	aa 1f       	adc	r26, r26
    2924:	bb 1f       	adc	r27, r27
    2926:	ee 1f       	adc	r30, r30
    2928:	ff 1f       	adc	r31, r31
    292a:	a2 17       	cp	r26, r18
    292c:	b3 07       	cpc	r27, r19
    292e:	e4 07       	cpc	r30, r20
    2930:	f5 07       	cpc	r31, r21
    2932:	20 f0       	brcs	.+8      	; 0x293c <__udivmodsi4_ep>
    2934:	a2 1b       	sub	r26, r18
    2936:	b3 0b       	sbc	r27, r19
    2938:	e4 0b       	sbc	r30, r20
    293a:	f5 0b       	sbc	r31, r21

0000293c <__udivmodsi4_ep>:
    293c:	66 1f       	adc	r22, r22
    293e:	77 1f       	adc	r23, r23
    2940:	88 1f       	adc	r24, r24
    2942:	99 1f       	adc	r25, r25
    2944:	1a 94       	dec	r1
    2946:	69 f7       	brne	.-38     	; 0x2922 <__udivmodsi4_loop>
    2948:	60 95       	com	r22
    294a:	70 95       	com	r23
    294c:	80 95       	com	r24
    294e:	90 95       	com	r25
    2950:	9b 01       	movw	r18, r22
    2952:	ac 01       	movw	r20, r24
    2954:	bd 01       	movw	r22, r26
    2956:	cf 01       	movw	r24, r30
    2958:	08 95       	ret

0000295a <__divmodsi4>:
    295a:	97 fb       	bst	r25, 7
    295c:	09 2e       	mov	r0, r25
    295e:	05 26       	eor	r0, r21
    2960:	0e d0       	rcall	.+28     	; 0x297e <__divmodsi4_neg1>
    2962:	57 fd       	sbrc	r21, 7
    2964:	04 d0       	rcall	.+8      	; 0x296e <__divmodsi4_neg2>
    2966:	d7 df       	rcall	.-82     	; 0x2916 <__udivmodsi4>
    2968:	0a d0       	rcall	.+20     	; 0x297e <__divmodsi4_neg1>
    296a:	00 1c       	adc	r0, r0
    296c:	38 f4       	brcc	.+14     	; 0x297c <__divmodsi4_exit>

0000296e <__divmodsi4_neg2>:
    296e:	50 95       	com	r21
    2970:	40 95       	com	r20
    2972:	30 95       	com	r19
    2974:	21 95       	neg	r18
    2976:	3f 4f       	sbci	r19, 0xFF	; 255
    2978:	4f 4f       	sbci	r20, 0xFF	; 255
    297a:	5f 4f       	sbci	r21, 0xFF	; 255

0000297c <__divmodsi4_exit>:
    297c:	08 95       	ret

0000297e <__divmodsi4_neg1>:
    297e:	f6 f7       	brtc	.-4      	; 0x297c <__divmodsi4_exit>
    2980:	90 95       	com	r25
    2982:	80 95       	com	r24
    2984:	70 95       	com	r23
    2986:	61 95       	neg	r22
    2988:	7f 4f       	sbci	r23, 0xFF	; 255
    298a:	8f 4f       	sbci	r24, 0xFF	; 255
    298c:	9f 4f       	sbci	r25, 0xFF	; 255
    298e:	08 95       	ret

00002990 <_exit>:
    2990:	f8 94       	cli

00002992 <__stop_program>:
    2992:	ff cf       	rjmp	.-2      	; 0x2992 <__stop_program>
