   1               		.file	"uart.c"
   2               	__SREG__ = 0x3f
   3               	__SP_H__ = 0x3e
   4               	__SP_L__ = 0x3d
   5               	__CCP__  = 0x34
   6               	__tmp_reg__ = 0
   7               	__zero_reg__ = 1
  15               	.Ltext0:
  16               	.global	UART_Config_GPIO
  18               	UART_Config_GPIO:
  19               	.LFB6:
  20               	.LM1:
  21               	/* prologue: function */
  22               	/* frame size = 0 */
  23               	/* epilogue start */
  24               	.LM2:
  25 0000 0895      		ret
  26               	.LFE6:
  28               	.global	UART_Config_Clock
  30               	UART_Config_Clock:
  31               	.LFB7:
  32               	.LM3:
  33               	/* prologue: function */
  34               	/* frame size = 0 */
  35               	/* epilogue start */
  36               	.LM4:
  37 0002 0895      		ret
  38               	.LFE7:
  40               	.global	UART_Config_BAUD_Rate
  42               	UART_Config_BAUD_Rate:
  43               	.LFB8:
  44               	.LM5:
  45               	.LVL0:
  46               	/* prologue: function */
  47               	/* frame size = 0 */
  48 0004 9B01      		movw r18,r22
  49 0006 AC01      		movw r20,r24
  50               	.LM6:
  51 0008 60E6      		ldi r22,lo8(1500000)
  52 000a 73EE      		ldi r23,hi8(1500000)
  53 000c 86E1      		ldi r24,hlo8(1500000)
  54 000e 90E0      		ldi r25,hhi8(1500000)
  55               	.LVL1:
  56 0010 0E94 0000 		call __udivmodsi4
  57               	.LVL2:
  58 0014 2150      		subi r18,lo8(-(-1))
  59 0016 3040      		sbci r19,hi8(-(-1))
  60 0018 4040      		sbci r20,hlo8(-(-1))
  61 001a 5040      		sbci r21,hhi8(-(-1))
  62               	.LVL3:
  63               	.LM7:
  64 001c E0EC      		ldi r30,lo8(192)
  65 001e F0E0      		ldi r31,hi8(192)
  66 0020 8081      		ld r24,Z
  67 0022 8260      		ori r24,lo8(2)
  68 0024 8083      		st Z,r24
  69               	.LM8:
  70 0026 BB27      		clr r27
  71 0028 A52F      		mov r26,r21
  72 002a 942F      		mov r25,r20
  73 002c 832F      		mov r24,r19
  74 002e 8093 C500 		sts 197,r24
  75               	.LM9:
  76 0032 2093 C400 		sts 196,r18
  77               	/* epilogue start */
  78               	.LM10:
  79 0036 0895      		ret
  80               	.LFE8:
  82               	.global	UART_Config_Transmitter
  84               	UART_Config_Transmitter:
  85               	.LFB9:
  86               	.LM11:
  87               	/* prologue: function */
  88               	/* frame size = 0 */
  89               	.LM12:
  90 0038 E1EC      		ldi r30,lo8(193)
  91 003a F0E0      		ldi r31,hi8(193)
  92 003c 8081      		ld r24,Z
  93 003e 8860      		ori r24,lo8(8)
  94 0040 8083      		st Z,r24
  95               	.LM13:
  96 0042 86E0      		ldi r24,lo8(6)
  97 0044 8093 C200 		sts 194,r24
  98               	/* epilogue start */
  99               	.LM14:
 100 0048 0895      		ret
 101               	.LFE9:
 103               	.global	UART_Config_Receiver
 105               	UART_Config_Receiver:
 106               	.LFB10:
 107               	.LM15:
 108               	/* prologue: function */
 109               	/* frame size = 0 */
 110               	.LM16:
 111 004a E1EC      		ldi r30,lo8(193)
 112 004c F0E0      		ldi r31,hi8(193)
 113 004e 8081      		ld r24,Z
 114 0050 8061      		ori r24,lo8(16)
 115 0052 8083      		st Z,r24
 116               	.LM17:
 117 0054 86E0      		ldi r24,lo8(6)
 118 0056 8093 C200 		sts 194,r24
 119               	/* epilogue start */
 120               	.LM18:
 121 005a 0895      		ret
 122               	.LFE10:
 124               	.global	UART_Config_Receiver_Interrupt
 126               	UART_Config_Receiver_Interrupt:
 127               	.LFB11:
 128               	.LM19:
 129               	/* prologue: function */
 130               	/* frame size = 0 */
 131               	.LM20:
 132 005c E1EC      		ldi r30,lo8(193)
 133 005e F0E0      		ldi r31,hi8(193)
 134 0060 8081      		ld r24,Z
 135 0062 8068      		ori r24,lo8(-128)
 136 0064 8083      		st Z,r24
 137               	.LM21:
 138               	/* #APP */
 139               	 ;  87 "uart.c" 1
 140 0066 7894      		sei
 141               	 ;  0 "" 2
 142               	/* epilogue start */
 143               	.LM22:
 144               	/* #NOAPP */
 145 0068 0895      		ret
 146               	.LFE11:
 148               	.global	UART_Transmit_Byte
 150               	UART_Transmit_Byte:
 151               	.LFB12:
 152               	.LM23:
 153               	.LVL4:
 154               	/* prologue: function */
 155               	/* frame size = 0 */
 156 006a 982F      		mov r25,r24
 157               	.LVL5:
 158               	.L14:
 159               	.LM24:
 160 006c 8091 C000 		lds r24,192
 161 0070 85FF      		sbrs r24,5
 162 0072 00C0      		rjmp .L14
 163               	.LM25:
 164 0074 9093 C600 		sts 198,r25
 165               	/* epilogue start */
 166               	.LM26:
 167 0078 0895      		ret
 168               	.LFE12:
 170               	.global	UART_Receive_Byte
 172               	UART_Receive_Byte:
 173               	.LFB13:
 174               	.LM27:
 175 007a DF93      		push r29
 176 007c CF93      		push r28
 177 007e 0F92      		push __tmp_reg__
 178 0080 CDB7      		in r28,__SP_L__
 179 0082 DEB7      		in r29,__SP_H__
 180               	/* prologue: function */
 181               	/* frame size = 1 */
 182               	.LM28:
 183 0084 1982      		std Y+1,__zero_reg__
 184               	.LVL6:
 185               	.LM29:
 186 0086 8091 C000 		lds r24,192
 187 008a 84FF      		sbrs r24,4
 188 008c 00C0      		rjmp .L18
 189               	.LM30:
 190 008e 8091 C600 		lds r24,198
 191               	.LVL7:
 192 0092 8983      		std Y+1,r24
 193               	.LM31:
 194 0094 81E0      		ldi r24,lo8(1)
 195               	.LVL8:
 196 0096 00C0      		rjmp .L22
 197               	.L18:
 198               	.LM32:
 199 0098 8091 C000 		lds r24,192
 200 009c 83FF      		sbrs r24,3
 201 009e 00C0      		rjmp .L20
 202               	.LM33:
 203 00a0 8091 C600 		lds r24,198
 204               	.LVL9:
 205 00a4 8983      		std Y+1,r24
 206               	.LM34:
 207 00a6 82E0      		ldi r24,lo8(2)
 208               	.LVL10:
 209               	.L22:
 210 00a8 8093 0000 		sts UART,r24
 211 00ac 00C0      		rjmp .L19
 212               	.L20:
 213               	.LM35:
 214 00ae 8091 C600 		lds r24,198
 215               	.LVL11:
 216 00b2 8983      		std Y+1,r24
 217               	.LM36:
 218 00b4 1092 0000 		sts UART,__zero_reg__
 219               	.LVL12:
 220               	.L19:
 221               	.LM37:
 222 00b8 8981      		ldd r24,Y+1
 223               	/* epilogue start */
 224               	.LM38:
 225 00ba 0F90      		pop __tmp_reg__
 226 00bc CF91      		pop r28
 227 00be DF91      		pop r29
 228 00c0 0895      		ret
 229               	.LFE13:
 231               	.global	UART_Last_Received_Byte
 233               	UART_Last_Received_Byte:
 234               	.LFB14:
 235               	.LM39:
 236               	/* prologue: function */
 237               	/* frame size = 0 */
 238               	.LM40:
 239 00c2 8091 0000 		lds r24,UART+10
 240               	/* epilogue start */
 241               	.LM41:
 242 00c6 0895      		ret
 243               	.LFE14:
 245               	.global	UART_Struct_Init
 247               	UART_Struct_Init:
 248               	.LFB15:
 249               	.LM42:
 250               	/* prologue: function */
 251               	/* frame size = 0 */
 252               	.LM43:
 253 00c8 1092 0000 		sts UART,__zero_reg__
 254 00cc E0E0      		ldi r30,lo8(UART+1)
 255 00ce F0E0      		ldi r31,hi8(UART+1)
 256               	.L26:
 257               	.LBB36:
 258               	.LM44:
 259 00d0 1192      		st Z+,__zero_reg__
 260               	.LM45:
 261 00d2 80E0      		ldi r24,hi8(UART+9)
 262 00d4 E030      		cpi r30,lo8(UART+9)
 263 00d6 F807      		cpc r31,r24
 264 00d8 01F4      		brne .L26
 265               	.LBE36:
 266               	.LM46:
 267 00da 1082      		st Z,__zero_reg__
 268               	.LM47:
 269 00dc 1182      		std Z+1,__zero_reg__
 270               	.LM48:
 271 00de 80E2      		ldi r24,lo8(32)
 272 00e0 90E0      		ldi r25,hi8(32)
 273 00e2 93A3      		std Z+35,r25
 274 00e4 82A3      		std Z+34,r24
 275               	.LM49:
 276 00e6 15A2      		std Z+37,__zero_reg__
 277 00e8 14A2      		std Z+36,__zero_reg__
 278 00ea 20E0      		ldi r18,lo8(0)
 279               	.LVL13:
 280 00ec 00C0      		rjmp .L27
 281               	.LVL14:
 282               	.L28:
 283               	.LBB37:
 284               	.LM50:
 285 00ee E050      		subi r30,lo8(-(UART))
 286 00f0 F040      		sbci r31,hi8(-(UART))
 287               	.LVL15:
 288 00f2 1386      		std Z+11,__zero_reg__
 289               	.LM51:
 290 00f4 2F5F      		subi r18,lo8(-(1))
 291               	.LVL16:
 292               	.L27:
 293 00f6 8091 0000 		lds r24,UART+43
 294 00fa 9091 0000 		lds r25,(UART+43)+1
 295 00fe E22F      		mov r30,r18
 296 0100 F0E0      		ldi r31,lo8(0)
 297 0102 E817      		cp r30,r24
 298 0104 F907      		cpc r31,r25
 299 0106 00F0      		brlo .L28
 300               	.LVL17:
 301               	.LBE37:
 302               	.LM52:
 303 0108 1092 0000 		sts (UART+47)+1,__zero_reg__
 304 010c 1092 0000 		sts UART+47,__zero_reg__
 305               	.LM53:
 306 0110 1092 0000 		sts (UART+49)+1,__zero_reg__
 307 0114 1092 0000 		sts UART+49,__zero_reg__
 308               	/* epilogue start */
 309               	.LM54:
 310 0118 0895      		ret
 311               	.LFE15:
 313               	.global	UART_Init
 315               	UART_Init:
 316               	.LFB16:
 317               	.LM55:
 318               	.LVL18:
 319               	/* prologue: function */
 320               	/* frame size = 0 */
 321               	.LM56:
 322 011a 0E94 0000 		call UART_Config_BAUD_Rate
 323               	.LVL19:
 324               	.LBB38:
 325               	.LBB39:
 326               	.LM57:
 327 011e E1EC      		ldi r30,lo8(193)
 328 0120 F0E0      		ldi r31,hi8(193)
 329 0122 8081      		ld r24,Z
 330 0124 8860      		ori r24,lo8(8)
 331 0126 8083      		st Z,r24
 332               	.LM58:
 333 0128 A2EC      		ldi r26,lo8(194)
 334 012a B0E0      		ldi r27,hi8(194)
 335 012c 96E0      		ldi r25,lo8(6)
 336 012e 9C93      		st X,r25
 337               	.LBE39:
 338               	.LBE38:
 339               	.LBB40:
 340               	.LBB41:
 341               	.LM59:
 342 0130 8081      		ld r24,Z
 343 0132 8061      		ori r24,lo8(16)
 344 0134 8083      		st Z,r24
 345               	.LM60:
 346 0136 9C93      		st X,r25
 347               	.LBE41:
 348               	.LBE40:
 349               	.LBB42:
 350               	.LBB43:
 351               	.LM61:
 352 0138 8081      		ld r24,Z
 353 013a 8068      		ori r24,lo8(-128)
 354 013c 8083      		st Z,r24
 355               	.LM62:
 356               	/* #APP */
 357               	 ;  87 "uart.c" 1
 358 013e 7894      		sei
 359               	 ;  0 "" 2
 360               	/* epilogue start */
 361               	/* #NOAPP */
 362               	.LBE43:
 363               	.LBE42:
 364               	.LM63:
 365 0140 0895      		ret
 366               	.LFE16:
 368               	.global	UART_Transmit_Byte_Hex
 370               	UART_Transmit_Byte_Hex:
 371               	.LFB17:
 372               	.LM64:
 373               	.LVL20:
 374 0142 1F93      		push r17
 375 0144 CF93      		push r28
 376 0146 DF93      		push r29
 377               	/* prologue: function */
 378               	/* frame size = 0 */
 379 0148 AB01      		movw r20,r22
 380 014a BC01      		movw r22,r24
 381               	.LM65:
 382 014c 4F3F      		cpi r20,lo8(255)
 383 014e 5105      		cpc r21,__zero_reg__
 384 0150 6105      		cpc r22,__zero_reg__
 385 0152 7105      		cpc r23,__zero_reg__
 386 0154 01F0      		breq .+2
 387 0156 00F4      		brsh .L34
 388               	.LVL21:
 389 0158 E8E0      		ldi r30,lo8(8)
 390 015a F0E0      		ldi r31,hi8(8)
 391               	.LVL22:
 392 015c C2E0      		ldi r28,lo8(2)
 393 015e D0E0      		ldi r29,hi8(2)
 394               	.LVL23:
 395 0160 00C0      		rjmp .L44
 396               	.LVL24:
 397               	.L34:
 398               	.LM66:
 399 0162 4030      		cpi r20,lo8(65536)
 400 0164 80E0      		ldi r24,hi8(65536)
 401 0166 5807      		cpc r21,r24
 402 0168 81E0      		ldi r24,hlo8(65536)
 403 016a 6807      		cpc r22,r24
 404 016c 80E0      		ldi r24,hhi8(65536)
 405 016e 7807      		cpc r23,r24
 406 0170 00F0      		brlo .L36
 407 0172 E0E2      		ldi r30,lo8(32)
 408 0174 F0E0      		ldi r31,hi8(32)
 409               	.LVL25:
 410 0176 C8E0      		ldi r28,lo8(8)
 411 0178 D0E0      		ldi r29,hi8(8)
 412               	.LVL26:
 413 017a 00C0      		rjmp .L44
 414               	.LVL27:
 415               	.L36:
 416 017c E0E1      		ldi r30,lo8(16)
 417 017e F0E0      		ldi r31,hi8(16)
 418               	.LVL28:
 419 0180 C4E0      		ldi r28,lo8(4)
 420 0182 D0E0      		ldi r29,hi8(4)
 421               	.LVL29:
 422               	.L44:
 423               	.LBB44:
 424               	.LBB45:
 425               	.LM67:
 426 0184 8091 C000 		lds r24,192
 427 0188 85FF      		sbrs r24,5
 428 018a 00C0      		rjmp .L44
 429               	.LM68:
 430 018c 80E3      		ldi r24,lo8(48)
 431 018e 8093 C600 		sts 198,r24
 432               	.L37:
 433               	.LBE45:
 434               	.LBE44:
 435               	.LBB46:
 436               	.LBB47:
 437               	.LM69:
 438 0192 8091 C000 		lds r24,192
 439 0196 85FF      		sbrs r24,5
 440 0198 00C0      		rjmp .L37
 441               	.LM70:
 442 019a 88E7      		ldi r24,lo8(120)
 443 019c 8093 C600 		sts 198,r24
 444 01a0 10E0      		ldi r17,lo8(0)
 445               	.LVL30:
 446 01a2 00C0      		rjmp .L38
 447               	.LVL31:
 448               	.L41:
 449               	.LBE47:
 450               	.LBE46:
 451               	.LBB48:
 452               	.LM71:
 453 01a4 3497      		sbiw r30,4
 454               	.LM72:
 455 01a6 DB01      		movw r26,r22
 456 01a8 CA01      		movw r24,r20
 457               	.LVL32:
 458 01aa 0E2E      		mov r0,r30
 459 01ac 00C0      		rjmp 2f
 460 01ae B695      	1:	lsr r27
 461 01b0 A795      		ror r26
 462 01b2 9795      		ror r25
 463 01b4 8795      		ror r24
 464 01b6 0A94      	2:	dec r0
 465 01b8 02F4      		brpl 1b
 466 01ba 90E0      		ldi r25,lo8(0)
 467               	.LVL33:
 468 01bc 8F70      		andi r24,lo8(15)
 469 01be 9070      		andi r25,hi8(15)
 470               	.LVL34:
 471               	.LM73:
 472 01c0 8A30      		cpi r24,10
 473 01c2 9105      		cpc r25,__zero_reg__
 474 01c4 00F0      		brlo .L39
 475               	.LM74:
 476 01c6 9C01      		movw r18,r24
 477 01c8 295C      		subi r18,lo8(-(55))
 478 01ca 3F4F      		sbci r19,hi8(-(55))
 479               	.LVL35:
 480 01cc 00C0      		rjmp .L43
 481               	.LVL36:
 482               	.L39:
 483               	.LM75:
 484 01ce 9C01      		movw r18,r24
 485 01d0 205D      		subi r18,lo8(-(48))
 486 01d2 3F4F      		sbci r19,hi8(-(48))
 487               	.LVL37:
 488               	.L43:
 489               	.LBB49:
 490               	.LBB50:
 491               	.LM76:
 492 01d4 8091 C000 		lds r24,192
 493 01d8 85FF      		sbrs r24,5
 494 01da 00C0      		rjmp .L43
 495               	.LM77:
 496 01dc 2093 C600 		sts 198,r18
 497               	.LBE50:
 498               	.LBE49:
 499               	.LM78:
 500 01e0 1F5F      		subi r17,lo8(-(1))
 501               	.L38:
 502 01e2 812F      		mov r24,r17
 503 01e4 90E0      		ldi r25,lo8(0)
 504               	.LVL38:
 505 01e6 8C17      		cp r24,r28
 506 01e8 9D07      		cpc r25,r29
 507 01ea 00F0      		brlo .L41
 508               	.LVL39:
 509               	/* epilogue start */
 510               	.LBE48:
 511               	.LM79:
 512 01ec DF91      		pop r29
 513 01ee CF91      		pop r28
 514               	.LVL40:
 515 01f0 1F91      		pop r17
 516 01f2 0895      		ret
 517               	.LFE17:
 519               	.global	UART_Transmit_Byte_Bin
 521               	UART_Transmit_Byte_Bin:
 522               	.LFB18:
 523               	.LM80:
 524               	.LVL41:
 525 01f4 CF92      		push r12
 526 01f6 DF92      		push r13
 527 01f8 EF92      		push r14
 528 01fa FF92      		push r15
 529 01fc 0F93      		push r16
 530 01fe 1F93      		push r17
 531 0200 CF93      		push r28
 532 0202 DF93      		push r29
 533               	/* prologue: function */
 534               	/* frame size = 0 */
 535 0204 AB01      		movw r20,r22
 536 0206 BC01      		movw r22,r24
 537               	.LM81:
 538 0208 4F3F      		cpi r20,lo8(255)
 539 020a 5105      		cpc r21,__zero_reg__
 540 020c 6105      		cpc r22,__zero_reg__
 541 020e 7105      		cpc r23,__zero_reg__
 542 0210 01F0      		breq .+2
 543 0212 00F4      		brsh .L49
 544               	.LVL42:
 545 0214 97E0      		ldi r25,lo8(7)
 546               	.LVL43:
 547 0216 00C0      		rjmp .L60
 548               	.LVL44:
 549               	.L49:
 550               	.LM82:
 551 0218 4030      		cpi r20,lo8(65536)
 552 021a 80E0      		ldi r24,hi8(65536)
 553 021c 5807      		cpc r21,r24
 554 021e 81E0      		ldi r24,hlo8(65536)
 555 0220 6807      		cpc r22,r24
 556 0222 80E0      		ldi r24,hhi8(65536)
 557 0224 7807      		cpc r23,r24
 558 0226 00F0      		brlo .L51
 559 0228 9FE1      		ldi r25,lo8(31)
 560               	.LVL45:
 561 022a 00C0      		rjmp .L60
 562               	.LVL46:
 563               	.L51:
 564 022c 9FE0      		ldi r25,lo8(15)
 565               	.LVL47:
 566               	.L60:
 567               	.LBB51:
 568               	.LBB52:
 569               	.LM83:
 570 022e 8091 C000 		lds r24,192
 571 0232 85FF      		sbrs r24,5
 572 0234 00C0      		rjmp .L60
 573               	.LM84:
 574 0236 80E3      		ldi r24,lo8(48)
 575 0238 8093 C600 		sts 198,r24
 576               	.L52:
 577               	.LBE52:
 578               	.LBE51:
 579               	.LBB53:
 580               	.LBB54:
 581               	.LM85:
 582 023c 8091 C000 		lds r24,192
 583 0240 85FF      		sbrs r24,5
 584 0242 00C0      		rjmp .L52
 585               	.LM86:
 586 0244 82E6      		ldi r24,lo8(98)
 587 0246 8093 C600 		sts 198,r24
 588 024a 20E0      		ldi r18,lo8(0)
 589 024c 30E0      		ldi r19,hi8(0)
 590               	.LM87:
 591 024e E92F      		mov r30,r25
 592 0250 F0E0      		ldi r31,lo8(0)
 593               	.LBE54:
 594               	.LBE53:
 595               	.LBB55:
 596               	.LBB56:
 597               	.LBB57:
 598               	.LM88:
 599 0252 00E3      		ldi r16,lo8(48)
 600               	.LBE57:
 601               	.LBE56:
 602               	.LBB59:
 603               	.LBB60:
 604 0254 11E3      		ldi r17,lo8(49)
 605               	.LBE60:
 606               	.LBE59:
 607               	.LM89:
 608 0256 EF01      		movw r28,r30
 609 0258 2196      		adiw r28,1
 610               	.L56:
 611               	.LM90:
 612 025a CF01      		movw r24,r30
 613 025c 821B      		sub r24,r18
 614 025e 930B      		sbc r25,r19
 615 0260 6A01      		movw r12,r20
 616 0262 7B01      		movw r14,r22
 617 0264 00C0      		rjmp 2f
 618 0266 F694      	1:	lsr r15
 619 0268 E794      		ror r14
 620 026a D794      		ror r13
 621 026c C794      		ror r12
 622 026e 8A95      	2:	dec r24
 623 0270 02F4      		brpl 1b
 624 0272 D701      		movw r26,r14
 625 0274 C601      		movw r24,r12
 626 0276 8170      		andi r24,lo8(1)
 627 0278 9070      		andi r25,hi8(1)
 628 027a 892B      		or r24,r25
 629 027c 01F0      		breq .L59
 630               	.L58:
 631               	.LBB62:
 632               	.LBB61:
 633               	.LM91:
 634 027e 8091 C000 		lds r24,192
 635 0282 85FF      		sbrs r24,5
 636 0284 00C0      		rjmp .L58
 637               	.LM92:
 638 0286 1093 C600 		sts 198,r17
 639 028a 00C0      		rjmp .L55
 640               	.L59:
 641               	.LBE61:
 642               	.LBE62:
 643               	.LBB63:
 644               	.LBB58:
 645               	.LM93:
 646 028c 8091 C000 		lds r24,192
 647 0290 85FF      		sbrs r24,5
 648 0292 00C0      		rjmp .L59
 649               	.LM94:
 650 0294 0093 C600 		sts 198,r16
 651               	.L55:
 652 0298 2F5F      		subi r18,lo8(-(1))
 653 029a 3F4F      		sbci r19,hi8(-(1))
 654               	.LBE58:
 655               	.LBE63:
 656               	.LM95:
 657 029c 2C17      		cp r18,r28
 658 029e 3D07      		cpc r19,r29
 659 02a0 01F4      		brne .L56
 660               	/* epilogue start */
 661               	.LBE55:
 662               	.LM96:
 663 02a2 DF91      		pop r29
 664 02a4 CF91      		pop r28
 665 02a6 1F91      		pop r17
 666 02a8 0F91      		pop r16
 667 02aa FF90      		pop r15
 668 02ac EF90      		pop r14
 669 02ae DF90      		pop r13
 670 02b0 CF90      		pop r12
 671 02b2 0895      		ret
 672               	.LFE18:
 674               	.global	UART_Transmit_Text
 676               	UART_Transmit_Text:
 677               	.LFB19:
 678               	.LM97:
 679               	.LVL48:
 680               	/* prologue: function */
 681               	/* frame size = 0 */
 682 02b4 AC01      		movw r20,r24
 683               	.LM98:
 684 02b6 20E0      		ldi r18,lo8(0)
 685               	.LVL49:
 686 02b8 00C0      		rjmp .L67
 687               	.LVL50:
 688               	.L70:
 689               	.LBB64:
 690               	.LBB65:
 691               	.LM99:
 692 02ba 8091 C000 		lds r24,192
 693 02be 85FF      		sbrs r24,5
 694 02c0 00C0      		rjmp .L70
 695               	.LM100:
 696 02c2 E093 C600 		sts 198,r30
 697               	.LBE65:
 698               	.LBE64:
 699               	.LM101:
 700 02c6 2F5F      		subi r18,lo8(-(1))
 701               	.LVL51:
 702               	.L67:
 703               	.LM102:
 704 02c8 FA01      		movw r30,r20
 705 02ca E20F      		add r30,r18
 706 02cc F11D      		adc r31,__zero_reg__
 707 02ce E081      		ld r30,Z
 708 02d0 EE23      		tst r30
 709 02d2 01F4      		brne .L70
 710               	/* epilogue start */
 711               	.LM103:
 712 02d4 0895      		ret
 713               	.LFE19:
 715               	.global	UART_Determine_Digit_Numbers
 717               	UART_Determine_Digit_Numbers:
 718               	.LFB20:
 719               	.LM104:
 720               	.LVL52:
 721 02d6 BF92      		push r11
 722 02d8 CF92      		push r12
 723 02da DF92      		push r13
 724 02dc EF92      		push r14
 725 02de FF92      		push r15
 726 02e0 0F93      		push r16
 727 02e2 1F93      		push r17
 728               	/* prologue: function */
 729               	/* frame size = 0 */
 730 02e4 6B01      		movw r12,r22
 731 02e6 7C01      		movw r14,r24
 732               	.LM105:
 733 02e8 6115      		cp r22,__zero_reg__
 734 02ea 7105      		cpc r23,__zero_reg__
 735 02ec 8105      		cpc r24,__zero_reg__
 736 02ee 9105      		cpc r25,__zero_reg__
 737 02f0 01F4      		brne .L73
 738               	.LM106:
 739 02f2 1092 0000 		sts UART+1,__zero_reg__
 740               	.LM107:
 741 02f6 81E0      		ldi r24,lo8(1)
 742 02f8 8093 0000 		sts UART+9,r24
 743 02fc 00C0      		rjmp .L76
 744               	.L73:
 745 02fe BB24      		clr r11
 746               	.LVL53:
 747               	.L75:
 748               	.LM108:
 749 0300 0B2D      		mov r16,r11
 750 0302 10E0      		ldi r17,lo8(0)
 751               	.LVL54:
 752 0304 0050      		subi r16,lo8(-(UART))
 753 0306 1040      		sbci r17,hi8(-(UART))
 754               	.LVL55:
 755 0308 C701      		movw r24,r14
 756 030a B601      		movw r22,r12
 757               	.LVL56:
 758 030c 2AE0      		ldi r18,lo8(10)
 759 030e 30E0      		ldi r19,hi8(10)
 760 0310 40E0      		ldi r20,hlo8(10)
 761 0312 50E0      		ldi r21,hhi8(10)
 762 0314 0E94 0000 		call __udivmodsi4
 763 0318 F801      		movw r30,r16
 764 031a 6183      		std Z+1,r22
 765               	.LM109:
 766 031c C701      		movw r24,r14
 767 031e B601      		movw r22,r12
 768 0320 2AE0      		ldi r18,lo8(10)
 769 0322 30E0      		ldi r19,hi8(10)
 770 0324 40E0      		ldi r20,hlo8(10)
 771 0326 50E0      		ldi r21,hhi8(10)
 772 0328 0E94 0000 		call __udivmodsi4
 773 032c C901      		movw r24,r18
 774 032e DA01      		movw r26,r20
 775 0330 6C01      		movw r12,r24
 776 0332 7D01      		movw r14,r26
 777               	.LM110:
 778 0334 B394      		inc r11
 779               	.LVL57:
 780               	.LM111:
 781 0336 C114      		cp r12,__zero_reg__
 782 0338 D104      		cpc r13,__zero_reg__
 783 033a E104      		cpc r14,__zero_reg__
 784 033c F104      		cpc r15,__zero_reg__
 785 033e 01F4      		brne .L75
 786               	.LM112:
 787 0340 B092 0000 		sts UART+9,r11
 788               	.LVL58:
 789               	.L76:
 790               	/* epilogue start */
 791               	.LM113:
 792 0344 1F91      		pop r17
 793               	.LVL59:
 794 0346 0F91      		pop r16
 795 0348 FF90      		pop r15
 796 034a EF90      		pop r14
 797 034c DF90      		pop r13
 798 034e CF90      		pop r12
 799               	.LVL60:
 800 0350 BF90      		pop r11
 801               	.LVL61:
 802 0352 0895      		ret
 803               	.LFE20:
 805               	.global	UART_Transmit_Number_Digits
 807               	UART_Transmit_Number_Digits:
 808               	.LFB21:
 809               	.LM114:
 810               	/* prologue: function */
 811               	/* frame size = 0 */
 812               	.LBB66:
 813               	.LM115:
 814 0354 E091 0000 		lds r30,UART+9
 815               	.LVL62:
 816 0358 00C0      		rjmp .L79
 817               	.LVL63:
 818               	.L81:
 819               	.LBB67:
 820               	.LM116:
 821 035a 2E2F      		mov r18,r30
 822 035c 2150      		subi r18,lo8(-(-1))
 823               	.LM117:
 824 035e E22F      		mov r30,r18
 825               	.LVL64:
 826 0360 F0E0      		ldi r31,lo8(0)
 827 0362 E050      		subi r30,lo8(-(UART))
 828 0364 F040      		sbci r31,hi8(-(UART))
 829 0366 9181      		ldd r25,Z+1
 830               	.LVL65:
 831               	.L80:
 832               	.LBB68:
 833               	.LBB69:
 834               	.LM118:
 835 0368 8091 C000 		lds r24,192
 836 036c 85FF      		sbrs r24,5
 837 036e 00C0      		rjmp .L80
 838               	.LBE69:
 839               	.LBE68:
 840               	.LM119:
 841 0370 905D      		subi r25,lo8(-(48))
 842               	.LBB71:
 843               	.LBB70:
 844               	.LM120:
 845 0372 9093 C600 		sts 198,r25
 846 0376 E22F      		mov r30,r18
 847               	.LVL66:
 848               	.L79:
 849               	.LBE70:
 850               	.LBE71:
 851               	.LBE67:
 852               	.LM121:
 853 0378 EE23      		tst r30
 854 037a 01F4      		brne .L81
 855               	/* epilogue start */
 856               	.LBE66:
 857               	.LM122:
 858 037c 0895      		ret
 859               	.LFE21:
 861               	.global	UART_Transmit_Number
 863               	UART_Transmit_Number:
 864               	.LFB22:
 865               	.LM123:
 866               	.LVL67:
 867               	/* prologue: function */
 868               	/* frame size = 0 */
 869 037e 9B01      		movw r18,r22
 870 0380 AC01      		movw r20,r24
 871               	.LM124:
 872 0382 97FF      		sbrs r25,7
 873 0384 00C0      		rjmp .L85
 874               	.L88:
 875               	.LBB72:
 876               	.LBB73:
 877               	.LM125:
 878 0386 8091 C000 		lds r24,192
 879 038a 85FF      		sbrs r24,5
 880 038c 00C0      		rjmp .L88
 881               	.LM126:
 882 038e 8DE2      		ldi r24,lo8(45)
 883 0390 8093 C600 		sts 198,r24
 884               	.LBE73:
 885               	.LBE72:
 886               	.LM127:
 887 0394 5095      		com r21
 888 0396 4095      		com r20
 889 0398 3095      		com r19
 890 039a 2195      		neg r18
 891 039c 3F4F      		sbci r19,lo8(-1)
 892 039e 4F4F      		sbci r20,lo8(-1)
 893 03a0 5F4F      		sbci r21,lo8(-1)
 894               	.LVL68:
 895               	.L85:
 896               	.LM128:
 897 03a2 CA01      		movw r24,r20
 898 03a4 B901      		movw r22,r18
 899 03a6 0E94 0000 		call UART_Determine_Digit_Numbers
 900               	.LVL69:
 901               	.LM129:
 902 03aa 0E94 0000 		call UART_Transmit_Number_Digits
 903               	/* epilogue start */
 904               	.LM130:
 905 03ae 0895      		ret
 906               	.LFE22:
 908               	.global	UART_Read_From_Buffer
 910               	UART_Read_From_Buffer:
 911               	.LFB23:
 912               	.LM131:
 913               	.LVL70:
 914               	/* prologue: function */
 915               	/* frame size = 0 */
 916               	.LM132:
 917 03b0 FC01      		movw r30,r24
 918 03b2 E050      		subi r30,lo8(-(UART))
 919 03b4 F040      		sbci r31,hi8(-(UART))
 920 03b6 8385      		ldd r24,Z+11
 921               	.LVL71:
 922               	/* epilogue start */
 923               	.LM133:
 924 03b8 0895      		ret
 925               	.LFE23:
 927               	.global	UART_Current_Buffer_Index
 929               	UART_Current_Buffer_Index:
 930               	.LFB24:
 931               	.LM134:
 932               	/* prologue: function */
 933               	/* frame size = 0 */
 934               	.LM135:
 935 03ba 2091 0000 		lds r18,UART+45
 936 03be 3091 0000 		lds r19,(UART+45)+1
 937               	.LM136:
 938 03c2 C901      		movw r24,r18
 939               	/* epilogue start */
 940 03c4 0895      		ret
 941               	.LFE24:
 943               	.global	UART_Current_Read_Index
 945               	UART_Current_Read_Index:
 946               	.LFB25:
 947               	.LM137:
 948               	/* prologue: function */
 949               	/* frame size = 0 */
 950               	.LM138:
 951 03c6 2091 0000 		lds r18,UART+49
 952 03ca 3091 0000 		lds r19,(UART+49)+1
 953               	.LM139:
 954 03ce C901      		movw r24,r18
 955               	/* epilogue start */
 956 03d0 0895      		ret
 957               	.LFE25:
 959               	.global	UART_Bytes_Available_To_Read
 961               	UART_Bytes_Available_To_Read:
 962               	.LFB26:
 963               	.LM140:
 964               	/* prologue: function */
 965               	/* frame size = 0 */
 966               	.LM141:
 967 03d2 2091 0000 		lds r18,UART+47
 968 03d6 3091 0000 		lds r19,(UART+47)+1
 969               	.LM142:
 970 03da C901      		movw r24,r18
 971               	/* epilogue start */
 972 03dc 0895      		ret
 973               	.LFE26:
 975               	.global	UART_Read
 977               	UART_Read:
 978               	.LFB27:
 979               	.LM143:
 980               	/* prologue: function */
 981               	/* frame size = 0 */
 982               	.LM144:
 983 03de E091 0000 		lds r30,UART+49
 984 03e2 F091 0000 		lds r31,(UART+49)+1
 985 03e6 E050      		subi r30,lo8(-(UART))
 986 03e8 F040      		sbci r31,hi8(-(UART))
 987 03ea 4385      		ldd r20,Z+11
 988               	.LVL72:
 989               	.LM145:
 990 03ec 8091 0000 		lds r24,UART+49
 991 03f0 9091 0000 		lds r25,(UART+49)+1
 992 03f4 0196      		adiw r24,1
 993 03f6 9093 0000 		sts (UART+49)+1,r25
 994 03fa 8093 0000 		sts UART+49,r24
 995               	.LM146:
 996 03fe 2091 0000 		lds r18,UART+49
 997 0402 3091 0000 		lds r19,(UART+49)+1
 998 0406 8091 0000 		lds r24,UART+43
 999 040a 9091 0000 		lds r25,(UART+43)+1
 1000 040e 2817      		cp r18,r24
 1001 0410 3907      		cpc r19,r25
 1002 0412 00F0      		brlo .L99
 1003               	.LM147:
 1004 0414 1092 0000 		sts (UART+49)+1,__zero_reg__
 1005 0418 1092 0000 		sts UART+49,__zero_reg__
 1006               	.L99:
 1007               	.LM148:
 1008 041c 8091 0000 		lds r24,UART+47
 1009 0420 9091 0000 		lds r25,(UART+47)+1
 1010 0424 892B      		or r24,r25
 1011 0426 01F0      		breq .L100
 1012               	.LM149:
 1013 0428 8091 0000 		lds r24,UART+47
 1014 042c 9091 0000 		lds r25,(UART+47)+1
 1015 0430 0197      		sbiw r24,1
 1016 0432 9093 0000 		sts (UART+47)+1,r25
 1017 0436 8093 0000 		sts UART+47,r24
 1018               	.L100:
 1019               	.LM150:
 1020 043a 842F      		mov r24,r20
 1021               	/* epilogue start */
 1022 043c 0895      		ret
 1023               	.LFE27:
 1025               	.global	UART_Flush_Buffer
 1027               	UART_Flush_Buffer:
 1028               	.LFB28:
 1029               	.LM151:
 1030               	/* prologue: function */
 1031               	/* frame size = 0 */
 1032               	.LM152:
 1033 043e 1092 0000 		sts UART,__zero_reg__
 1034 0442 20E0      		ldi r18,lo8(0)
 1035 0444 30E0      		ldi r19,hi8(0)
 1036               	.LVL73:
 1037 0446 00C0      		rjmp .L103
 1038               	.L104:
 1039               	.LBB74:
 1040               	.LM153:
 1041 0448 F901      		movw r30,r18
 1042 044a E050      		subi r30,lo8(-(UART))
 1043 044c F040      		sbci r31,hi8(-(UART))
 1044 044e 1386      		std Z+11,__zero_reg__
 1045               	.LM154:
 1046 0450 2F5F      		subi r18,lo8(-(1))
 1047 0452 3F4F      		sbci r19,hi8(-(1))
 1048               	.L103:
 1049 0454 8091 0000 		lds r24,UART+43
 1050 0458 9091 0000 		lds r25,(UART+43)+1
 1051 045c 2817      		cp r18,r24
 1052 045e 3907      		cpc r19,r25
 1053 0460 00F0      		brlo .L104
 1054               	.LBE74:
 1055               	.LM155:
 1056 0462 1092 0000 		sts (UART+45)+1,__zero_reg__
 1057 0466 1092 0000 		sts UART+45,__zero_reg__
 1058               	.LM156:
 1059 046a 1092 0000 		sts (UART+49)+1,__zero_reg__
 1060 046e 1092 0000 		sts UART+49,__zero_reg__
 1061               	.LM157:
 1062 0472 1092 0000 		sts (UART+47)+1,__zero_reg__
 1063 0476 1092 0000 		sts UART+47,__zero_reg__
 1064               	/* epilogue start */
 1065               	.LM158:
 1066 047a 0895      		ret
 1067               	.LFE28:
 1069               	.global	UART_Interrupt_Service_Routine
 1071               	UART_Interrupt_Service_Routine:
 1072               	.LFB29:
 1073               	.LM159:
 1074 047c DF93      		push r29
 1075 047e CF93      		push r28
 1076 0480 0F92      		push __tmp_reg__
 1077 0482 CDB7      		in r28,__SP_L__
 1078 0484 DEB7      		in r29,__SP_H__
 1079               	/* prologue: function */
 1080               	/* frame size = 1 */
 1081               	.LM160:
 1082 0486 1982      		std Y+1,__zero_reg__
 1083               	.LVL74:
 1084               	.LM161:
 1085 0488 0E94 0000 		call UART_Receive_Byte
 1086 048c 8983      		std Y+1,r24
 1087               	.LM162:
 1088 048e 8091 0000 		lds r24,UART
 1089 0492 8823      		tst r24
 1090 0494 01F0      		breq .+2
 1091 0496 00C0      		rjmp .L109
 1092               	.LM163:
 1093 0498 8981      		ldd r24,Y+1
 1094 049a 8093 0000 		sts UART+10,r24
 1095               	.LM164:
 1096 049e E091 0000 		lds r30,UART+45
 1097 04a2 F091 0000 		lds r31,(UART+45)+1
 1098 04a6 8981      		ldd r24,Y+1
 1099 04a8 E050      		subi r30,lo8(-(UART))
 1100 04aa F040      		sbci r31,hi8(-(UART))
 1101 04ac 8387      		std Z+11,r24
 1102               	.LM165:
 1103 04ae 8091 0000 		lds r24,UART+45
 1104 04b2 9091 0000 		lds r25,(UART+45)+1
 1105 04b6 0196      		adiw r24,1
 1106 04b8 9093 0000 		sts (UART+45)+1,r25
 1107 04bc 8093 0000 		sts UART+45,r24
 1108               	.LM166:
 1109 04c0 8091 0000 		lds r24,UART+47
 1110 04c4 9091 0000 		lds r25,(UART+47)+1
 1111 04c8 0196      		adiw r24,1
 1112 04ca 9093 0000 		sts (UART+47)+1,r25
 1113 04ce 8093 0000 		sts UART+47,r24
 1114               	.LM167:
 1115 04d2 2091 0000 		lds r18,UART+47
 1116 04d6 3091 0000 		lds r19,(UART+47)+1
 1117 04da 8091 0000 		lds r24,UART+43
 1118 04de 9091 0000 		lds r25,(UART+43)+1
 1119 04e2 8217      		cp r24,r18
 1120 04e4 9307      		cpc r25,r19
 1121 04e6 00F4      		brsh .L108
 1122               	.LM168:
 1123 04e8 8091 0000 		lds r24,UART+43
 1124 04ec 9091 0000 		lds r25,(UART+43)+1
 1125 04f0 9093 0000 		sts (UART+47)+1,r25
 1126 04f4 8093 0000 		sts UART+47,r24
 1127               	.LM169:
 1128 04f8 8091 0000 		lds r24,UART+49
 1129 04fc 9091 0000 		lds r25,(UART+49)+1
 1130 0500 0196      		adiw r24,1
 1131 0502 9093 0000 		sts (UART+49)+1,r25
 1132 0506 8093 0000 		sts UART+49,r24
 1133               	.LM170:
 1134 050a 2091 0000 		lds r18,UART+49
 1135 050e 3091 0000 		lds r19,(UART+49)+1
 1136 0512 8091 0000 		lds r24,UART+43
 1137 0516 9091 0000 		lds r25,(UART+43)+1
 1138 051a 2817      		cp r18,r24
 1139 051c 3907      		cpc r19,r25
 1140 051e 00F0      		brlo .L108
 1141               	.LM171:
 1142 0520 1092 0000 		sts (UART+49)+1,__zero_reg__
 1143 0524 1092 0000 		sts UART+49,__zero_reg__
 1144               	.L108:
 1145               	.LM172:
 1146 0528 2091 0000 		lds r18,UART+45
 1147 052c 3091 0000 		lds r19,(UART+45)+1
 1148 0530 8091 0000 		lds r24,UART+43
 1149 0534 9091 0000 		lds r25,(UART+43)+1
 1150 0538 2817      		cp r18,r24
 1151 053a 3907      		cpc r19,r25
 1152 053c 00F0      		brlo .L109
 1153               	.LM173:
 1154 053e 1092 0000 		sts (UART+45)+1,__zero_reg__
 1155 0542 1092 0000 		sts UART+45,__zero_reg__
 1156               	.L109:
 1157               	/* epilogue start */
 1158               	.LM174:
 1159 0546 0F90      		pop __tmp_reg__
 1160 0548 CF91      		pop r28
 1161 054a DF91      		pop r29
 1162 054c 0895      		ret
 1163               	.LFE29:
 1165               	.global	__vector_18
 1167               	__vector_18:
 1168               	.LFB30:
 1169               	.LM175:
 1170 054e 1F92      		push __zero_reg__
 1171 0550 0F92      		push r0
 1172 0552 0FB6      		in r0,__SREG__
 1173 0554 0F92      		push r0
 1174 0556 1124      		clr __zero_reg__
 1175 0558 2F93      		push r18
 1176 055a 3F93      		push r19
 1177 055c 4F93      		push r20
 1178 055e 5F93      		push r21
 1179 0560 6F93      		push r22
 1180 0562 7F93      		push r23
 1181 0564 8F93      		push r24
 1182 0566 9F93      		push r25
 1183 0568 AF93      		push r26
 1184 056a BF93      		push r27
 1185 056c EF93      		push r30
 1186 056e FF93      		push r31
 1187               	/* prologue: Signal */
 1188               	/* frame size = 0 */
 1189               	.LM176:
 1190 0570 0E94 0000 		call UART_Interrupt_Service_Routine
 1191               	/* epilogue start */
 1192               	.LM177:
 1193 0574 FF91      		pop r31
 1194 0576 EF91      		pop r30
 1195 0578 BF91      		pop r27
 1196 057a AF91      		pop r26
 1197 057c 9F91      		pop r25
 1198 057e 8F91      		pop r24
 1199 0580 7F91      		pop r23
 1200 0582 6F91      		pop r22
 1201 0584 5F91      		pop r21
 1202 0586 4F91      		pop r20
 1203 0588 3F91      		pop r19
 1204 058a 2F91      		pop r18
 1205 058c 0F90      		pop r0
 1206 058e 0FBE      		out __SREG__,r0
 1207 0590 0F90      		pop r0
 1208 0592 1F90      		pop __zero_reg__
 1209 0594 1895      		reti
 1210               	.LFE30:
 1212               		.lcomm UART,51
 1429               	.Letext0:
DEFINED SYMBOLS
                            *ABS*:00000000 uart.c
C:\Users\EED-R&I\AppData\Local\Temp/ccjv2QS4.s:2      *ABS*:0000003f __SREG__
C:\Users\EED-R&I\AppData\Local\Temp/ccjv2QS4.s:3      *ABS*:0000003e __SP_H__
C:\Users\EED-R&I\AppData\Local\Temp/ccjv2QS4.s:4      *ABS*:0000003d __SP_L__
C:\Users\EED-R&I\AppData\Local\Temp/ccjv2QS4.s:5      *ABS*:00000034 __CCP__
C:\Users\EED-R&I\AppData\Local\Temp/ccjv2QS4.s:6      *ABS*:00000000 __tmp_reg__
C:\Users\EED-R&I\AppData\Local\Temp/ccjv2QS4.s:7      *ABS*:00000001 __zero_reg__
C:\Users\EED-R&I\AppData\Local\Temp/ccjv2QS4.s:18     .text:00000000 UART_Config_GPIO
C:\Users\EED-R&I\AppData\Local\Temp/ccjv2QS4.s:30     .text:00000002 UART_Config_Clock
C:\Users\EED-R&I\AppData\Local\Temp/ccjv2QS4.s:42     .text:00000004 UART_Config_BAUD_Rate
C:\Users\EED-R&I\AppData\Local\Temp/ccjv2QS4.s:84     .text:00000038 UART_Config_Transmitter
C:\Users\EED-R&I\AppData\Local\Temp/ccjv2QS4.s:105    .text:0000004a UART_Config_Receiver
C:\Users\EED-R&I\AppData\Local\Temp/ccjv2QS4.s:126    .text:0000005c UART_Config_Receiver_Interrupt
C:\Users\EED-R&I\AppData\Local\Temp/ccjv2QS4.s:150    .text:0000006a UART_Transmit_Byte
C:\Users\EED-R&I\AppData\Local\Temp/ccjv2QS4.s:172    .text:0000007a UART_Receive_Byte
                             .bss:00000000 UART
C:\Users\EED-R&I\AppData\Local\Temp/ccjv2QS4.s:233    .text:000000c2 UART_Last_Received_Byte
C:\Users\EED-R&I\AppData\Local\Temp/ccjv2QS4.s:247    .text:000000c8 UART_Struct_Init
C:\Users\EED-R&I\AppData\Local\Temp/ccjv2QS4.s:315    .text:0000011a UART_Init
C:\Users\EED-R&I\AppData\Local\Temp/ccjv2QS4.s:370    .text:00000142 UART_Transmit_Byte_Hex
C:\Users\EED-R&I\AppData\Local\Temp/ccjv2QS4.s:521    .text:000001f4 UART_Transmit_Byte_Bin
C:\Users\EED-R&I\AppData\Local\Temp/ccjv2QS4.s:676    .text:000002b4 UART_Transmit_Text
C:\Users\EED-R&I\AppData\Local\Temp/ccjv2QS4.s:717    .text:000002d6 UART_Determine_Digit_Numbers
C:\Users\EED-R&I\AppData\Local\Temp/ccjv2QS4.s:807    .text:00000354 UART_Transmit_Number_Digits
C:\Users\EED-R&I\AppData\Local\Temp/ccjv2QS4.s:863    .text:0000037e UART_Transmit_Number
C:\Users\EED-R&I\AppData\Local\Temp/ccjv2QS4.s:910    .text:000003b0 UART_Read_From_Buffer
C:\Users\EED-R&I\AppData\Local\Temp/ccjv2QS4.s:929    .text:000003ba UART_Current_Buffer_Index
C:\Users\EED-R&I\AppData\Local\Temp/ccjv2QS4.s:945    .text:000003c6 UART_Current_Read_Index
C:\Users\EED-R&I\AppData\Local\Temp/ccjv2QS4.s:961    .text:000003d2 UART_Bytes_Available_To_Read
C:\Users\EED-R&I\AppData\Local\Temp/ccjv2QS4.s:977    .text:000003de UART_Read
C:\Users\EED-R&I\AppData\Local\Temp/ccjv2QS4.s:1027   .text:0000043e UART_Flush_Buffer
C:\Users\EED-R&I\AppData\Local\Temp/ccjv2QS4.s:1071   .text:0000047c UART_Interrupt_Service_Routine
C:\Users\EED-R&I\AppData\Local\Temp/ccjv2QS4.s:1167   .text:0000054e __vector_18

UNDEFINED SYMBOLS
__udivmodsi4
__do_clear_bss
